(dp0
I1985
(dp1
sI1986
(dp2
sI1987
(dp3
sI1988
(dp4
sI1989
(dp5
sI1990
(dp6
sI1991
(dp7
sI1992
(dp8
sI1993
(dp9
sI1994
(dp10
sI1995
(dp11
sI1996
(dp12
sI1997
(dp13
sI1998
(dp14
sI1999
(dp15
sI2000
(dp16
sI2001
(dp17
sI2002
(dp18
sI2003
(dp19
I1102
F1565.0
sI1103
F1593.0
sI1104
F1644.0
sI1105
F1431.0
sI1106
F1536.0
sI1107
F1451.0
sI1108
F1561.0
sI1110
F1629.0
sI1111
F1622.0
sI1112
F1846.0
sI1113
F1695.0
sI1114
F1633.0
sI1115
F1406.0
sI1116
F1542.0
sI1117
F1568.0
sI1119
F1388.0
sI1120
F1714.0
sI1122
F1724.0
sI1123
F1560.0
sI1124
F1616.0
sI1125
F1631.0
sI1126
F1444.0
sI1127
F1582.0
sI1128
F1664.0
sI1129
F1549.0
sI1130
F1704.0
sI1131
F1684.0
sI1132
F1560.0
sI1133
F1543.0
sI1135
F1677.0
sI1137
F1573.0
sI1138
F1432.0
sI1139
F1786.0
sI1140
F1739.0
sI1141
F1782.0
sI1142
F1622.0
sI1143
F1717.0
sI1144
F1389.0
sI1145
F1510.0
sI1147
F1533.0
sI1148
F1584.0
sI1149
F1555.0
sI1150
F1599.0
sI1151
F1676.0
sI1152
F1343.0
sI1153
F1658.0
sI1154
F1417.0
sI1155
F1601.0
sI1156
F1451.0
sI1157
F1529.0
sI1158
F1726.0
sI1159
F1590.0
sI1160
F1701.0
sI1161
F1671.0
sI1162
F1353.0
sI1163
F1757.0
sI1164
F1545.0
sI1165
F1480.0
sI1166
F1801.0
sI1168
F1519.0
sI1169
F1577.0
sI1170
F1548.0
sI1171
F1473.0
sI1172
F1626.0
sI1173
F1787.0
sI1174
F1602.0
sI1175
F1620.0
sI1176
F1618.0
sI1177
F1641.0
sI1178
F1668.0
sI1179
F1474.0
sI1180
F1678.0
sI1181
F1798.0
sI1182
F1479.0
sI1183
F1583.0
sI1184
F1490.0
sI1185
F1569.0
sI1186
F1636.0
sI1187
F1532.0
sI1189
F1559.0
sI1190
F1679.0
sI1191
F1552.0
sI1192
F1576.0
sI1193
F1681.0
sI1194
F1439.0
sI1196
F1765.0
sI1197
F1631.0
sI1198
F1458.0
sI1199
F1608.0
sI1200
F1367.0
sI1201
F1693.0
sI1202
F1553.0
sI1203
F1565.0
sI1204
F1591.0
sI1205
F1420.0
sI1206
F1634.0
sI1207
F1623.0
sI1208
F1767.0
sI1209
F1578.0
sI1210
F1618.0
sI1211
F1740.0
sI1212
F1511.0
sI1214
F1627.0
sI1216
F1617.0
sI1217
F1510.0
sI1218
F1653.0
sI1219
F1451.0
sI1220
F1502.0
sI1221
F1777.0
sI1222
F1507.0
sI1224
F1559.0
sI1225
F1559.0
sI1226
F1588.0
sI1227
F1717.0
sI1228
F1794.0
sI1229
F1502.0
sI1231
F1683.0
sI1232
F1436.0
sI1233
F1636.0
sI1234
F1616.0
sI1235
F1630.0
sI1236
F1506.0
sI1237
F1660.0
sI1238
F1512.0
sI1239
F1558.0
sI1240
F1655.0
sI1241
F1560.0
sI1242
F1860.0
sI1243
F1574.0
sI1245
F1672.0
sI1246
F1910.0
sI1247
F1547.0
sI1248
F1544.0
sI1249
F1561.0
sI1250
F1577.0
sI1251
F1557.0
sI1252
F1462.0
sI1253
F1429.0
sI1254
F1485.0
sI1256
F1549.0
sI1257
F1782.0
sI1258
F1515.0
sI1259
F1397.0
sI1260
F1609.0
sI1261
F1716.0
sI1263
F1562.0
sI1264
F1748.0
sI1265
F1581.0
sI1266
F1851.0
sI1267
F1567.0
sI1268
F1739.0
sI1269
F1535.0
sI1270
F1576.0
sI1271
F1417.0
sI1272
F1761.0
sI1273
F1737.0
sI1274
F1541.0
sI1275
F1573.0
sI1276
F1664.0
sI1277
F1751.0
sI1278
F1636.0
sI1279
F1595.0
sI1280
F1732.0
sI1281
F1740.0
sI1282
F1527.0
sI1283
F1648.0
sI1284
F1602.0
sI1285
F1564.0
sI1286
F1516.0
sI1287
F1673.0
sI1288
F1438.0
sI1289
F1410.0
sI1290
F1610.0
sI1291
F1525.0
sI1292
F1630.0
sI1293
F1612.0
sI1296
F1645.0
sI1298
F1471.0
sI1299
F1348.0
sI1301
F1674.0
sI1304
F1555.0
sI1305
F1660.0
sI1306
F1428.0
sI1307
F1547.0
sI1308
F1687.0
sI1309
F1563.0
sI1310
F1680.0
sI1311
F1349.0
sI1313
F1545.0
sI1314
F1652.0
sI1317
F1436.0
sI1318
F1590.0
sI1319
F1580.0
sI1320
F1541.0
sI1321
F1566.0
sI1322
F1448.0
sI1323
F1739.0
sI1324
F1627.0
sI1325
F1612.0
sI1326
F1681.0
sI1328
F1841.0
sI1329
F1711.0
sI1330
F1562.0
sI1331
F1618.0
sI1332
F1713.0
sI1333
F1565.0
sI1334
F1519.0
sI1335
F1761.0
sI1336
F1498.0
sI1337
F1607.0
sI1338
F1842.0
sI1339
F1519.0
sI1340
F1436.0
sI1341
F1629.0
sI1343
F1640.0
sI1344
F1667.0
sI1345
F1694.0
sI1346
F1619.0
sI1347
F1520.0
sI1348
F1654.0
sI1349
F1657.0
sI1350
F1617.0
sI1351
F1547.0
sI1352
F1514.0
sI1353
F1576.0
sI1354
F1680.0
sI1356
F1763.0
sI1357
F1475.0
sI1358
F1733.0
sI1359
F1572.0
sI1360
F1681.0
sI1361
F1624.0
sI1362
F1633.0
sI1363
F1447.0
sI1364
F1659.0
sI1365
F1539.0
sI1366
F1379.0
sI1368
F1543.0
sI1369
F1487.0
sI1371
F1694.0
sI1372
F1680.0
sI1373
F1687.0
sI1374
F1657.0
sI1375
F1571.0
sI1376
F1588.0
sI1378
F1600.0
sI1379
F1567.0
sI1380
F1434.0
sI1381
F1507.0
sI1382
F1598.0
sI1383
F1608.0
sI1384
F1571.0
sI1385
F1652.0
sI1386
F1734.0
sI1387
F1686.0
sI1388
F1593.0
sI1389
F1520.0
sI1390
F1754.0
sI1391
F1460.0
sI1392
F1530.0
sI1393
F1893.0
sI1394
F1550.0
sI1395
F1511.0
sI1396
F1679.0
sI1397
F1685.0
sI1398
F1346.0
sI1399
F1660.0
sI1400
F1821.0
sI1401
F1612.0
sI1402
F1592.0
sI1403
F1688.0
sI1404
F1533.0
sI1405
F1570.0
sI1406
F1382.0
sI1407
F1769.0
sI1408
F1619.0
sI1409
F1742.0
sI1410
F1434.0
sI1411
F1599.0
sI1412
F1677.0
sI1414
F1685.0
sI1415
F1464.0
sI1416
F1680.0
sI1417
F1582.0
sI1418
F1692.0
sI1419
F1543.0
sI1420
F1446.0
sI1421
F1592.0
sI1422
F1418.0
sI1423
F1761.0
sI1424
F1728.0
sI1425
F1600.0
sI1426
F1614.0
sI1427
F1515.0
sI1428
F1772.0
sI1429
F1701.0
sI1431
F1432.0
sI1433
F1676.0
sI1434
F1687.0
sI1435
F1554.0
sI1436
F1677.0
sI1437
F1593.0
sI1438
F1594.0
sI1439
F1538.0
sI1440
F1500.0
sI1441
F1488.0
sI1442
F1412.0
sI1443
F1752.0
sI1444
F1674.0
sI1447
F1693.0
sI1448
F1788.0
sI1449
F1546.0
sI1450
F1487.0
sI1451
F1789.0
sI1452
F1595.0
sI1453
F1488.0
sI1454
F1747.0
sI1455
F1658.0
sI1456
F1553.0
sI1457
F1661.0
sI1458
F1784.0
sI1459
F1546.0
sI1460
F1501.0
sI1461
F1678.0
sI1462
F1809.0
sI1463
F1593.0
sI1464
F1466.0
ssI2004
(dp20
I1102
F1744.0
sI1103
F1543.0
sI1104
F1808.0
sI1105
F1455.0
sI1106
F1573.0
sI1107
F1341.0
sI1108
F1479.0
sI1110
F1633.0
sI1111
F1458.0
sI1112
F1783.0
sI1113
F1567.0
sI1114
F1639.0
sI1115
F1228.0
sI1116
F1578.0
sI1117
F1587.0
sI1119
F1307.0
sI1120
F1667.0
sI1122
F1760.0
sI1123
F1582.0
sI1124
F1519.0
sI1125
F1706.0
sI1126
F1364.0
sI1127
F1556.0
sI1128
F1674.0
sI1129
F1704.0
sI1130
F1830.0
sI1131
F1783.0
sI1132
F1560.0
sI1133
F1585.0
sI1135
F1617.0
sI1137
F1565.0
sI1138
F1621.0
sI1139
F1670.0
sI1140
F1804.0
sI1141
F1490.0
sI1142
F1519.0
sI1143
F1656.0
sI1144
F1285.0
sI1145
F1467.0
sI1147
F1564.0
sI1148
F1576.0
sI1149
F1384.0
sI1150
F1743.0
sI1151
F1679.0
sI1152
F1473.0
sI1153
F1852.0
sI1154
F1339.0
sI1155
F1581.0
sI1156
F1300.0
sI1157
F1502.0
sI1158
F1693.0
sI1159
F1549.0
sI1160
F1754.0
sI1161
F1624.0
sI1162
F1417.0
sI1163
F1971.0
sI1164
F1582.0
sI1165
F1442.0
sI1166
F1771.0
sI1168
F1500.0
sI1169
F1578.0
sI1170
F1534.0
sI1171
F1291.0
sI1172
F1665.0
sI1173
F1798.0
sI1174
F1623.0
sI1175
F1539.0
sI1176
F1570.0
sI1177
F1787.0
sI1178
F1690.0
sI1179
F1519.0
sI1180
F1705.0
sI1181
F1939.0
sI1182
F1549.0
sI1183
F1420.0
sI1184
F1530.0
sI1185
F1529.0
sI1186
F1666.0
sI1187
F1574.0
sI1189
F1519.0
sI1190
F1794.0
sI1191
F1477.0
sI1192
F1589.0
sI1193
F1686.0
sI1194
F1380.0
sI1196
F1815.0
sI1197
F1577.0
sI1198
F1349.0
sI1199
F1667.0
sI1200
F1389.0
sI1201
F1633.0
sI1202
F1592.0
sI1203
F1695.0
sI1204
F1648.0
sI1205
F1393.0
sI1206
F1727.0
sI1207
F1575.0
sI1208
F1762.0
sI1209
F1672.0
sI1210
F1869.0
sI1211
F1892.0
sI1212
F1451.0
sI1214
F1516.0
sI1216
F1520.0
sI1217
F1372.0
sI1218
F1678.0
sI1219
F1546.0
sI1220
F1576.0
sI1221
F1621.0
sI1222
F1484.0
sI1224
F1343.0
sI1225
F1571.0
sI1226
F1524.0
sI1227
F1806.0
sI1228
F1906.0
sI1229
F1502.0
sI1231
F1662.0
sI1232
F1435.0
sI1233
F1562.0
sI1234
F1679.0
sI1235
F1692.0
sI1236
F1327.0
sI1237
F1644.0
sI1238
F1452.0
sI1239
F1520.0
sI1240
F1561.0
sI1241
F1432.0
sI1242
F1872.0
sI1243
F1626.0
sI1245
F1729.0
sI1246
F1973.0
sI1247
F1510.0
sI1248
F1567.0
sI1249
F1422.0
sI1250
F1614.0
sI1251
F1613.0
sI1252
F1360.0
sI1253
F1352.0
sI1254
F1408.0
sI1256
F1572.0
sI1257
F1787.0
sI1258
F1562.0
sI1259
F1254.0
sI1260
F1492.0
sI1261
F1744.0
sI1263
F1632.0
sI1264
F1839.0
sI1265
F1432.0
sI1266
F1736.0
sI1267
F1569.0
sI1268
F1809.0
sI1269
F1504.0
sI1270
F1515.0
sI1271
F1358.0
sI1272
F1827.0
sI1273
F1553.0
sI1274
F1555.0
sI1275
F1665.0
sI1276
F1723.0
sI1277
F1772.0
sI1278
F1586.0
sI1279
F1622.0
sI1280
F1898.0
sI1281
F1744.0
sI1282
F1559.0
sI1283
F1676.0
sI1284
F1646.0
sI1285
F1489.0
sI1286
F1525.0
sI1287
F1622.0
sI1288
F1421.0
sI1290
F1673.0
sI1291
F1498.0
sI1292
F1651.0
sI1293
F1770.0
sI1296
F1503.0
sI1298
F1336.0
sI1299
F1248.0
sI1301
F1801.0
sI1304
F1658.0
sI1305
F1820.0
sI1306
F1433.0
sI1307
F1592.0
sI1308
F1586.0
sI1309
F1629.0
sI1310
F1730.0
sI1311
F1257.0
sI1313
F1481.0
sI1314
F1765.0
sI1317
F1506.0
sI1318
F1629.0
sI1319
F1559.0
sI1320
F1721.0
sI1321
F1636.0
sI1322
F1427.0
sI1323
F1769.0
sI1324
F1537.0
sI1325
F1518.0
sI1326
F1640.0
sI1328
F1795.0
sI1329
F1958.0
sI1330
F1627.0
sI1331
F1608.0
sI1332
F1706.0
sI1333
F1573.0
sI1334
F1765.0
sI1335
F1712.0
sI1336
F1478.0
sI1337
F1637.0
sI1338
F1944.0
sI1339
F1499.0
sI1340
F1441.0
sI1341
F1435.0
sI1343
F1719.0
sI1344
F1762.0
sI1345
F1669.0
sI1346
F1447.0
sI1347
F1454.0
sI1348
F1684.0
sI1349
F1722.0
sI1350
F1722.0
sI1351
F1581.0
sI1352
F1515.0
sI1353
F1644.0
sI1354
F1624.0
sI1356
F1842.0
sI1357
F1483.0
sI1358
F1558.0
sI1359
F1498.0
sI1360
F1423.0
sI1361
F1609.0
sI1362
F1622.0
sI1363
F1379.0
sI1364
F1614.0
sI1365
F1582.0
sI1366
F1319.0
sI1368
F1586.0
sI1369
F1436.0
sI1371
F1779.0
sI1372
F1649.0
sI1373
F1631.0
sI1374
F1569.0
sI1375
F1535.0
sI1376
F1740.0
sI1378
F1471.0
sI1379
F1577.0
sI1380
F1438.0
sI1381
F1451.0
sI1382
F1479.0
sI1383
F1577.0
sI1384
F1544.0
sI1385
F1534.0
sI1386
F1938.0
sI1387
F1740.0
sI1388
F1671.0
sI1389
F1618.0
sI1390
F1933.0
sI1391
F1494.0
sI1392
F1456.0
sI1393
F1873.0
sI1394
F1551.0
sI1395
F1583.0
sI1396
F1688.0
sI1397
F1704.0
sI1398
F1360.0
sI1399
F1551.0
sI1400
F1884.0
sI1401
F1478.0
sI1402
F1488.0
sI1403
F1786.0
sI1404
F1456.0
sI1405
F1673.0
sI1406
F1394.0
sI1407
F1828.0
sI1408
F1545.0
sI1409
F1541.0
sI1410
F1516.0
sI1411
F1503.0
sI1412
F1795.0
sI1414
F1521.0
sI1415
F1483.0
sI1416
F1785.0
sI1417
F1549.0
sI1418
F1744.0
sI1419
F1475.0
sI1420
F1351.0
sI1421
F1468.0
sI1422
F1453.0
sI1423
F1656.0
sI1424
F1732.0
sI1425
F1628.0
sI1426
F1611.0
sI1427
F1621.0
sI1428
F1821.0
sI1429
F1825.0
sI1431
F1699.0
sI1433
F1771.0
sI1434
F1682.0
sI1435
F1792.0
sI1436
F1720.0
sI1437
F1658.0
sI1438
F1700.0
sI1439
F1642.0
sI1440
F1354.0
sI1441
F1464.0
sI1442
F1294.0
sI1443
F1661.0
sI1444
F1807.0
sI1447
F1578.0
sI1448
F1830.0
sI1449
F1729.0
sI1450
F1564.0
sI1451
F1647.0
sI1452
F1650.0
sI1453
F1595.0
sI1454
F1739.0
sI1455
F1721.0
sI1456
F1423.0
sI1457
F1605.0
sI1458
F1887.0
sI1459
F1440.0
sI1460
F1565.0
sI1461
F1609.0
sI1462
F1891.0
sI1463
F1531.0
sI1464
F1428.0
ssI2005
(dp21
I1102
F1726.0
sI1103
F1674.0
sI1104
F1860.0
sI1105
F1497.0
sI1106
F1505.0
sI1107
F1448.0
sI1108
F1331.0
sI1110
F1602.0
sI1111
F1562.0
sI1112
F1956.0
sI1113
F1662.0
sI1114
F1678.0
sI1115
F1228.0
sI1116
F1676.0
sI1117
F1580.0
sI1119
F1190.0
sI1120
F1671.0
sI1122
F1577.0
sI1123
F1611.0
sI1124
F1476.0
sI1125
F1596.0
sI1126
F1378.0
sI1127
F1531.0
sI1128
F1561.0
sI1129
F1640.0
sI1130
F1904.0
sI1131
F1731.0
sI1132
F1639.0
sI1133
F1572.0
sI1135
F1514.0
sI1137
F1720.0
sI1138
F1748.0
sI1139
F1575.0
sI1140
F1602.0
sI1141
F1475.0
sI1142
F1373.0
sI1143
F1644.0
sI1144
F1199.0
sI1145
F1487.0
sI1147
F1331.0
sI1148
F1496.0
sI1149
F1459.0
sI1150
F1805.0
sI1151
F1670.0
sI1152
F1454.0
sI1153
F1884.0
sI1154
F1339.0
sI1155
F1683.0
sI1156
F1363.0
sI1157
F1430.0
sI1158
F1669.0
sI1159
F1475.0
sI1160
F1684.0
sI1161
F1567.0
sI1162
F1401.0
sI1163
F1929.0
sI1164
F1545.0
sI1165
F1504.0
sI1166
F1805.0
sI1168
F1640.0
sI1169
F1641.0
sI1170
F1511.0
sI1171
F1400.0
sI1172
F1744.0
sI1173
F1743.0
sI1174
F1510.0
sI1175
F1608.0
sI1176
F1686.0
sI1177
F1782.0
sI1178
F1614.0
sI1179
F1588.0
sI1180
F1709.0
sI1181
F1977.0
sI1182
F1475.0
sI1183
F1454.0
sI1184
F1653.0
sI1185
F1460.0
sI1186
F1459.0
sI1187
F1517.0
sI1189
F1455.0
sI1190
F1543.0
sI1191
F1483.0
sI1192
F1630.0
sI1193
F1604.0
sI1194
F1437.0
sI1196
F1937.0
sI1197
F1501.0
sI1198
F1489.0
sI1199
F1606.0
sI1200
F1525.0
sI1201
F1620.0
sI1202
F1566.0
sI1203
F1793.0
sI1204
F1592.0
sI1205
F1555.0
sI1206
F1662.0
sI1207
F1696.0
sI1208
F1597.0
sI1209
F1587.0
sI1210
F1842.0
sI1211
F1947.0
sI1212
F1472.0
sI1214
F1555.0
sI1216
F1390.0
sI1217
F1470.0
sI1218
F1644.0
sI1219
F1458.0
sI1220
F1710.0
sI1221
F1743.0
sI1222
F1634.0
sI1224
F1224.0
sI1225
F1424.0
sI1226
F1406.0
sI1227
F1665.0
sI1228
F2078.0
sI1229
F1607.0
sI1231
F1738.0
sI1232
F1509.0
sI1233
F1589.0
sI1234
F1763.0
sI1235
F1778.0
sI1236
F1352.0
sI1237
F1587.0
sI1238
F1466.0
sI1239
F1533.0
sI1240
F1365.0
sI1241
F1356.0
sI1242
F1895.0
sI1243
F1695.0
sI1245
F1706.0
sI1246
F2016.0
sI1247
F1532.0
sI1248
F1456.0
sI1249
F1520.0
sI1250
F1516.0
sI1251
F1553.0
sI1252
F1486.0
sI1253
F1449.0
sI1254
F1474.0
sI1255
F1282.0
sI1256
F1599.0
sI1257
F2003.0
sI1258
F1524.0
sI1259
F1295.0
sI1260
F1556.0
sI1261
F1841.0
sI1263
F1561.0
sI1264
F1648.0
sI1265
F1437.0
sI1266
F1726.0
sI1267
F1486.0
sI1268
F1759.0
sI1269
F1619.0
sI1270
F1494.0
sI1271
F1194.0
sI1272
F1781.0
sI1273
F1549.0
sI1274
F1669.0
sI1275
F1716.0
sI1276
F1615.0
sI1277
F1929.0
sI1278
F1748.0
sI1279
F1646.0
sI1280
F1863.0
sI1281
F1737.0
sI1282
F1583.0
sI1283
F1740.0
sI1284
F1609.0
sI1285
F1599.0
sI1286
F1517.0
sI1287
F1482.0
sI1288
F1452.0
sI1290
F1514.0
sI1291
F1366.0
sI1292
F1656.0
sI1293
F1673.0
sI1294
F1422.0
sI1296
F1518.0
sI1298
F1357.0
sI1299
F1239.0
sI1301
F1839.0
sI1304
F1685.0
sI1305
F1869.0
sI1306
F1390.0
sI1307
F1815.0
sI1308
F1400.0
sI1309
F1573.0
sI1310
F1721.0
sI1311
F1212.0
sI1313
F1448.0
sI1314
F2030.0
sI1317
F1525.0
sI1318
F1714.0
sI1319
F1446.0
sI1320
F1751.0
sI1321
F1682.0
sI1322
F1596.0
sI1323
F1760.0
sI1324
F1552.0
sI1325
F1719.0
sI1326
F1733.0
sI1328
F1890.0
sI1329
F1965.0
sI1330
F1794.0
sI1331
F1714.0
sI1332
F1686.0
sI1333
F1687.0
sI1334
F1888.0
sI1335
F1749.0
sI1336
F1431.0
sI1337
F1643.0
sI1338
F1888.0
sI1339
F1549.0
sI1340
F1563.0
sI1341
F1289.0
sI1343
F1615.0
sI1344
F1713.0
sI1345
F1576.0
sI1346
F1394.0
sI1347
F1438.0
sI1348
F1504.0
sI1349
F1735.0
sI1350
F1677.0
sI1351
F1646.0
sI1352
F1510.0
sI1353
F1607.0
sI1354
F1578.0
sI1356
F1878.0
sI1357
F1317.0
sI1358
F1573.0
sI1359
F1511.0
sI1360
F1615.0
sI1361
F1567.0
sI1362
F1658.0
sI1363
F1356.0
sI1364
F1512.0
sI1365
F1602.0
sI1366
F1157.0
sI1368
F1664.0
sI1369
F1502.0
sI1371
F1675.0
sI1372
F1475.0
sI1373
F1423.0
sI1374
F1606.0
sI1375
F1485.0
sI1376
F1727.0
sI1378
F1588.0
sI1379
F1509.0
sI1380
F1425.0
sI1381
F1462.0
sI1382
F1334.0
sI1383
F1505.0
sI1384
F1509.0
sI1385
F1563.0
sI1386
F1833.0
sI1387
F1622.0
sI1388
F1802.0
sI1389
F1619.0
sI1390
F1828.0
sI1391
F1442.0
sI1392
F1470.0
sI1393
F1932.0
sI1394
F1599.0
sI1395
F1678.0
sI1396
F1711.0
sI1397
F1701.0
sI1398
F1463.0
sI1399
F1587.0
sI1400
F1826.0
sI1401
F1680.0
sI1402
F1471.0
sI1403
F1860.0
sI1404
F1343.0
sI1405
F1677.0
sI1406
F1306.0
sI1407
F1566.0
sI1408
F1514.0
sI1409
F1503.0
sI1410
F1440.0
sI1411
F1454.0
sI1412
F1811.0
sI1413
F1498.0
sI1414
F1566.0
sI1415
F1413.0
sI1416
F1749.0
sI1417
F1726.0
sI1418
F1760.0
sI1419
F1358.0
sI1420
F1392.0
sI1421
F1450.0
sI1422
F1573.0
sI1423
F1699.0
sI1424
F1739.0
sI1425
F1628.0
sI1426
F1474.0
sI1427
F1566.0
sI1428
F1925.0
sI1429
F1824.0
sI1430
F1581.0
sI1431
F1820.0
sI1433
F1745.0
sI1434
F1575.0
sI1435
F1770.0
sI1436
F1802.0
sI1437
F1889.0
sI1438
F1692.0
sI1439
F1698.0
sI1440
F1338.0
sI1441
F1371.0
sI1442
F1391.0
sI1443
F1711.0
sI1444
F1706.0
sI1447
F1557.0
sI1448
F1933.0
sI1449
F1932.0
sI1450
F1624.0
sI1451
F1562.0
sI1452
F1858.0
sI1453
F1601.0
sI1454
F1865.0
sI1455
F1749.0
sI1456
F1404.0
sI1457
F1748.0
sI1458
F1935.0
sI1459
F1496.0
sI1460
F1574.0
sI1461
F1656.0
sI1462
F1769.0
sI1463
F1509.0
sI1464
F1316.0
ssI2006
(dp22
I1102
F1806.0
sI1103
F1756.0
sI1104
F1846.0
sI1105
F1462.0
sI1106
F1427.0
sI1107
F1609.0
sI1108
F1318.0
sI1110
F1520.0
sI1111
F1542.0
sI1112
F1868.0
sI1113
F1629.0
sI1114
F1578.0
sI1115
F1350.0
sI1116
F1840.0
sI1117
F1529.0
sI1119
F1153.0
sI1120
F1667.0
sI1122
F1562.0
sI1123
F1509.0
sI1124
F1528.0
sI1125
F1653.0
sI1126
F1425.0
sI1127
F1571.0
sI1128
F1580.0
sI1129
F1578.0
sI1130
F1980.0
sI1131
F1564.0
sI1132
F1488.0
sI1133
F1805.0
sI1135
F1440.0
sI1137
F1846.0
sI1138
F1680.0
sI1139
F1660.0
sI1140
F1762.0
sI1141
F1347.0
sI1142
F1412.0
sI1143
F1779.0
sI1144
F1326.0
sI1145
F1457.0
sI1147
F1243.0
sI1148
F1548.0
sI1149
F1456.0
sI1150
F1769.0
sI1151
F1644.0
sI1152
F1495.0
sI1153
F1863.0
sI1154
F1312.0
sI1155
F1730.0
sI1156
F1409.0
sI1157
F1583.0
sI1158
F1636.0
sI1159
F1397.0
sI1160
F1794.0
sI1161
F1612.0
sI1162
F1382.0
sI1163
F2062.0
sI1164
F1461.0
sI1165
F1489.0
sI1166
F1816.0
sI1168
F1578.0
sI1169
F1492.0
sI1170
F1484.0
sI1171
F1347.0
sI1172
F1722.0
sI1173
F1653.0
sI1174
F1455.0
sI1175
F1600.0
sI1176
F1607.0
sI1177
F1737.0
sI1178
F1603.0
sI1179
F1534.0
sI1180
F1618.0
sI1181
F2069.0
sI1182
F1336.0
sI1183
F1353.0
sI1184
F1536.0
sI1185
F1404.0
sI1186
F1552.0
sI1187
F1419.0
sI1189
F1543.0
sI1190
F1512.0
sI1191
F1528.0
sI1192
F1628.0
sI1193
F1495.0
sI1194
F1508.0
sI1196
F2057.0
sI1197
F1439.0
sI1198
F1454.0
sI1199
F1776.0
sI1200
F1633.0
sI1201
F1630.0
sI1202
F1536.0
sI1203
F1932.0
sI1204
F1662.0
sI1205
F1584.0
sI1206
F1881.0
sI1207
F1864.0
sI1208
F1676.0
sI1209
F1464.0
sI1210
F1705.0
sI1211
F2023.0
sI1212
F1433.0
sI1214
F1482.0
sI1216
F1443.0
sI1217
F1453.0
sI1218
F1675.0
sI1219
F1494.0
sI1220
F1826.0
sI1221
F1711.0
sI1222
F1743.0
sI1224
F1249.0
sI1225
F1322.0
sI1226
F1467.0
sI1227
F1640.0
sI1228
F1995.0
sI1229
F1523.0
sI1231
F1817.0
sI1232
F1570.0
sI1233
F1717.0
sI1234
F1906.0
sI1235
F1724.0
sI1236
F1393.0
sI1237
F1613.0
sI1238
F1431.0
sI1239
F1267.0
sI1240
F1518.0
sI1241
F1301.0
sI1242
F1965.0
sI1243
F1707.0
sI1244
F1455.0
sI1245
F1826.0
sI1246
F1915.0
sI1247
F1663.0
sI1248
F1404.0
sI1249
F1524.0
sI1250
F1586.0
sI1251
F1350.0
sI1252
F1600.0
sI1253
F1608.0
sI1254
F1453.0
sI1255
F1314.0
sI1256
F1708.0
sI1257
F1864.0
sI1258
F1577.0
sI1259
F1466.0
sI1260
F1629.0
sI1261
F1976.0
sI1263
F1478.0
sI1264
F1664.0
sI1265
F1622.0
sI1266
F1818.0
sI1267
F1519.0
sI1268
F1804.0
sI1269
F1620.0
sI1270
F1481.0
sI1271
F1214.0
sI1272
F1981.0
sI1273
F1414.0
sI1274
F1731.0
sI1275
F1766.0
sI1276
F1744.0
sI1277
F1862.0
sI1278
F1750.0
sI1279
F1638.0
sI1280
F1750.0
sI1281
F1666.0
sI1282
F1531.0
sI1283
F1818.0
sI1284
F1626.0
sI1285
F1735.0
sI1286
F1509.0
sI1287
F1314.0
sI1288
F1251.0
sI1290
F1381.0
sI1291
F1443.0
sI1292
F1657.0
sI1293
F1755.0
sI1294
F1312.0
sI1295
F1565.0
sI1296
F1635.0
sI1298
F1328.0
sI1299
F1226.0
sI1301
F1849.0
sI1304
F1744.0
sI1305
F1905.0
sI1306
F1450.0
sI1307
F1734.0
sI1308
F1620.0
sI1309
F1514.0
sI1310
F1560.0
sI1311
F1284.0
sI1313
F1435.0
sI1314
F1982.0
sI1316
F1342.0
sI1317
F1520.0
sI1318
F1715.0
sI1319
F1610.0
sI1320
F1790.0
sI1321
F1682.0
sI1322
F1753.0
sI1323
F1762.0
sI1324
F1447.0
sI1325
F1725.0
sI1326
F1904.0
sI1328
F1873.0
sI1329
F1817.0
sI1330
F1779.0
sI1331
F1697.0
sI1332
F1689.0
sI1333
F1646.0
sI1334
F1826.0
sI1335
F1727.0
sI1336
F1618.0
sI1337
F1518.0
sI1338
F1946.0
sI1339
F1537.0
sI1340
F1504.0
sI1341
F1189.0
sI1343
F1583.0
sI1344
F1695.0
sI1345
F1546.0
sI1346
F1404.0
sI1347
F1479.0
sI1348
F1594.0
sI1349
F1595.0
sI1350
F1599.0
sI1351
F1464.0
sI1352
F1479.0
sI1353
F1722.0
sI1354
F1516.0
sI1355
F1476.0
sI1356
F1839.0
sI1357
F1364.0
sI1358
F1637.0
sI1359
F1586.0
sI1360
F1649.0
sI1361
F1779.0
sI1362
F1597.0
sI1363
F1334.0
sI1364
F1534.0
sI1365
F1594.0
sI1366
F1085.0
sI1368
F1600.0
sI1369
F1343.0
sI1371
F1753.0
sI1372
F1518.0
sI1373
F1564.0
sI1374
F1553.0
sI1375
F1730.0
sI1376
F1796.0
sI1378
F1496.0
sI1379
F1453.0
sI1380
F1551.0
sI1381
F1426.0
sI1382
F1370.0
sI1383
F1432.0
sI1384
F1292.0
sI1385
F1626.0
sI1386
F1805.0
sI1387
F1690.0
sI1388
F1753.0
sI1389
F1619.0
sI1390
F1783.0
sI1391
F1507.0
sI1392
F1307.0
sI1393
F1931.0
sI1394
F1626.0
sI1395
F1499.0
sI1396
F1722.0
sI1397
F1855.0
sI1398
F1516.0
sI1399
F1595.0
sI1400
F1972.0
sI1401
F1845.0
sI1402
F1299.0
sI1403
F1739.0
sI1404
F1447.0
sI1405
F1708.0
sI1406
F1437.0
sI1407
F1546.0
sI1408
F1542.0
sI1409
F1517.0
sI1410
F1290.0
sI1411
F1331.0
sI1412
F1871.0
sI1413
F1391.0
sI1414
F1597.0
sI1415
F1345.0
sI1416
F1635.0
sI1417
F1984.0
sI1418
F1670.0
sI1419
F1365.0
sI1420
F1362.0
sI1421
F1412.0
sI1422
F1452.0
sI1423
F1818.0
sI1424
F1741.0
sI1425
F1684.0
sI1426
F1470.0
sI1427
F1465.0
sI1428
F1713.0
sI1429
F1821.0
sI1430
F1541.0
sI1431
F1801.0
sI1433
F1722.0
sI1434
F1560.0
sI1435
F1793.0
sI1436
F1569.0
sI1437
F2026.0
sI1438
F1730.0
sI1439
F1666.0
sI1440
F1249.0
sI1441
F1441.0
sI1442
F1312.0
sI1443
F1791.0
sI1444
F1615.0
sI1447
F1482.0
sI1448
F1828.0
sI1449
F1959.0
sI1450
F1595.0
sI1451
F1466.0
sI1452
F1880.0
sI1453
F1591.0
sI1454
F1812.0
sI1455
F1849.0
sI1456
F1396.0
sI1457
F1740.0
sI1458
F1827.0
sI1459
F1450.0
sI1460
F1553.0
sI1461
F1622.0
sI1462
F1785.0
sI1463
F1503.0
sI1464
F1320.0
ssI2007
(dp23
I1102
F1822.0
sI1103
F1823.0
sI1104
F1831.0
sI1105
F1301.0
sI1106
F1325.0
sI1107
F1678.0
sI1108
F1316.0
sI1110
F1522.0
sI1111
F1723.0
sI1112
F1866.0
sI1113
F1555.0
sI1114
F1501.0
sI1115
F1366.0
sI1116
F1850.0
sI1117
F1595.0
sI1119
F1333.0
sI1120
F1726.0
sI1122
F1617.0
sI1123
F1443.0
sI1124
F1634.0
sI1125
F1686.0
sI1126
F1306.0
sI1127
F1476.0
sI1129
F1639.0
sI1130
F1908.0
sI1131
F1494.0
sI1132
F1471.0
sI1133
F1813.0
sI1135
F1433.0
sI1137
F1792.0
sI1138
F1530.0
sI1139
F1821.0
sI1140
F1856.0
sI1141
F1479.0
sI1142
F1607.0
sI1143
F1743.0
sI1144
F1394.0
sI1145
F1447.0
sI1146
F1422.0
sI1147
F1328.0
sI1148
F1640.0
sI1149
F1288.0
sI1150
F1666.0
sI1151
F1541.0
sI1152
F1406.0
sI1153
F1692.0
sI1154
F1277.0
sI1155
F1811.0
sI1156
F1403.0
sI1157
F1450.0
sI1158
F1709.0
sI1159
F1376.0
sI1160
F1638.0
sI1161
F1678.0
sI1162
F1489.0
sI1163
F1856.0
sI1164
F1425.0
sI1165
F1531.0
sI1166
F1866.0
sI1168
F1601.0
sI1169
F1460.0
sI1170
F1417.0
sI1171
F1350.0
sI1172
F1843.0
sI1173
F1723.0
sI1174
F1351.0
sI1175
F1615.0
sI1176
F1361.0
sI1177
F1813.0
sI1178
F1525.0
sI1179
F1679.0
sI1180
F1782.0
sI1181
F1947.0
sI1182
F1424.0
sI1183
F1360.0
sI1184
F1609.0
sI1185
F1490.0
sI1186
F1539.0
sI1187
F1314.0
sI1189
F1381.0
sI1190
F1635.0
sI1191
F1602.0
sI1192
F1473.0
sI1193
F1544.0
sI1194
F1567.0
sI1196
F2105.0
sI1197
F1514.0
sI1198
F1468.0
sI1199
F1830.0
sI1200
F1686.0
sI1201
F1746.0
sI1202
F1527.0
sI1203
F1863.0
sI1204
F1549.0
sI1205
F1423.0
sI1206
F1724.0
sI1207
F2061.0
sI1208
F1791.0
sI1209
F1497.0
sI1210
F1826.0
sI1211
F1906.0
sI1212
F1376.0
sI1214
F1447.0
sI1216
F1428.0
sI1217
F1453.0
sI1218
F1711.0
sI1219
F1545.0
sI1220
F1809.0
sI1221
F1764.0
sI1222
F1736.0
sI1224
F1214.0
sI1225
F1275.0
sI1226
F1461.0
sI1227
F1584.0
sI1228
F1904.0
sI1229
F1619.0
sI1231
F1871.0
sI1232
F1589.0
sI1233
F1365.0
sI1234
F1835.0
sI1235
F1696.0
sI1236
F1413.0
sI1237
F1551.0
sI1238
F1514.0
sI1239
F1414.0
sI1240
F1399.0
sI1241
F1318.0
sI1242
F2081.0
sI1243
F1827.0
sI1244
F1449.0
sI1245
F1790.0
sI1246
F1907.0
sI1247
F1494.0
sI1248
F1350.0
sI1249
F1521.0
sI1250
F1446.0
sI1251
F1379.0
sI1252
F1541.0
sI1253
F1734.0
sI1254
F1366.0
sI1255
F1275.0
sI1256
F1581.0
sI1257
F1943.0
sI1258
F1546.0
sI1259
F1572.0
sI1260
F1684.0
sI1261
F1818.0
sI1263
F1422.0
sI1264
F1531.0
sI1265
F1718.0
sI1266
F1891.0
sI1267
F1569.0
sI1268
F1910.0
sI1269
F1774.0
sI1270
F1505.0
sI1271
F1117.0
sI1272
F2062.0
sI1273
F1379.0
sI1274
F1674.0
sI1275
F1749.0
sI1276
F1813.0
sI1277
F1888.0
sI1278
F1622.0
sI1279
F1793.0
sI1280
F1812.0
sI1281
F1740.0
sI1282
F1476.0
sI1283
F1845.0
sI1284
F1459.0
sI1285
F1594.0
sI1286
F1435.0
sI1287
F1340.0
sI1288
F1335.0
sI1290
F1478.0
sI1291
F1402.0
sI1292
F1583.0
sI1293
F1631.0
sI1294
F1251.0
sI1295
F1613.0
sI1296
F1447.0
sI1298
F1379.0
sI1299
F1347.0
sI1301
F1837.0
sI1304
F1733.0
sI1305
F1961.0
sI1306
F1411.0
sI1307
F1628.0
sI1308
F1790.0
sI1309
F1515.0
sI1310
F1706.0
sI1311
F1343.0
sI1312
F1315.0
sI1313
F1372.0
sI1314
F2049.0
sI1316
F1182.0
sI1317
F1637.0
sI1318
F1620.0
sI1319
F1613.0
sI1320
F1759.0
sI1321
F1624.0
sI1322
F1620.0
sI1323
F1879.0
sI1324
F1573.0
sI1325
F1674.0
sI1326
F2105.0
sI1328
F1788.0
sI1329
F1825.0
sI1330
F1827.0
sI1331
F1716.0
sI1332
F1916.0
sI1333
F1584.0
sI1334
F1581.0
sI1335
F1762.0
sI1336
F1585.0
sI1337
F1482.0
sI1338
F2012.0
sI1339
F1468.0
sI1340
F1543.0
sI1341
F1221.0
sI1343
F1442.0
sI1344
F1776.0
sI1345
F1799.0
sI1346
F1453.0
sI1347
F1322.0
sI1348
F1705.0
sI1349
F1601.0
sI1350
F1489.0
sI1351
F1534.0
sI1352
F1472.0
sI1353
F1642.0
sI1354
F1416.0
sI1355
F1330.0
sI1356
F1972.0
sI1357
F1518.0
sI1358
F1645.0
sI1359
F1522.0
sI1360
F1635.0
sI1361
F1799.0
sI1362
F1587.0
sI1363
F1329.0
sI1364
F1580.0
sI1365
F1732.0
sI1366
F1216.0
sI1368
F1520.0
sI1369
F1370.0
sI1371
F1689.0
sI1372
F1474.0
sI1373
F1640.0
sI1374
F1495.0
sI1375
F1680.0
sI1376
F1730.0
sI1378
F1571.0
sI1379
F1604.0
sI1380
F1413.0
sI1381
F1458.0
sI1382
F1370.0
sI1383
F1393.0
sI1384
F1290.0
sI1385
F1711.0
sI1386
F1741.0
sI1387
F1732.0
sI1388
F1680.0
sI1389
F1365.0
sI1390
F1795.0
sI1391
F1382.0
sI1392
F1323.0
sI1393
F1936.0
sI1394
F1740.0
sI1395
F1573.0
sI1396
F1620.0
sI1397
F1939.0
sI1398
F1424.0
sI1399
F1609.0
sI1400
F1960.0
sI1401
F1956.0
sI1402
F1273.0
sI1403
F1818.0
sI1404
F1346.0
sI1405
F1736.0
sI1406
F1550.0
sI1407
F1517.0
sI1408
F1641.0
sI1409
F1637.0
sI1410
F1359.0
sI1411
F1328.0
sI1412
F1690.0
sI1413
F1321.0
sI1414
F1556.0
sI1415
F1297.0
sI1416
F1691.0
sI1417
F2019.0
sI1418
F1492.0
sI1419
F1495.0
sI1420
F1416.0
sI1421
F1395.0
sI1422
F1560.0
sI1423
F1538.0
sI1424
F1929.0
sI1425
F1871.0
sI1426
F1452.0
sI1427
F1330.0
sI1428
F1649.0
sI1429
F1794.0
sI1430
F1646.0
sI1431
F1600.0
sI1433
F1861.0
sI1434
F1549.0
sI1435
F1876.0
sI1436
F1700.0
sI1437
F1956.0
sI1438
F1820.0
sI1439
F1829.0
sI1440
F1326.0
sI1441
F1417.0
sI1442
F1259.0
sI1443
F1716.0
sI1444
F1632.0
sI1445
F1365.0
sI1447
F1386.0
sI1448
F1764.0
sI1449
F1852.0
sI1450
F1854.0
sI1451
F1592.0
sI1452
F1888.0
sI1453
F1585.0
sI1454
F1547.0
sI1455
F1743.0
sI1456
F1512.0
sI1457
F1847.0
sI1458
F1985.0
sI1459
F1411.0
sI1460
F1735.0
sI1461
F1689.0
sI1462
F1880.0
sI1463
F1549.0
sI1464
F1470.0
ssI2008
(dp24
I1102
F1722.0
sI1103
F1789.0
sI1104
F1791.0
sI1105
F1352.0
sI1106
F1446.0
sI1107
F1547.0
sI1108
F1235.0
sI1110
F1629.0
sI1111
F1633.0
sI1112
F1839.0
sI1113
F1759.0
sI1114
F1599.0
sI1115
F1317.0
sI1116
F1911.0
sI1117
F1439.0
sI1119
F1440.0
sI1120
F1690.0
sI1122
F1686.0
sI1123
F1394.0
sI1124
F1778.0
sI1125
F1731.0
sI1126
F1253.0
sI1127
F1476.0
sI1129
F1780.0
sI1130
F1772.0
sI1131
F1508.0
sI1132
F1501.0
sI1133
F1766.0
sI1135
F1602.0
sI1137
F1535.0
sI1138
F1480.0
sI1139
F1939.0
sI1140
F1917.0
sI1141
F1540.0
sI1142
F1499.0
sI1143
F1766.0
sI1144
F1313.0
sI1145
F1345.0
sI1146
F1372.0
sI1147
F1327.0
sI1148
F1510.0
sI1149
F1274.0
sI1150
F1754.0
sI1151
F1585.0
sI1152
F1414.0
sI1153
F1709.0
sI1154
F1211.0
sI1155
F1924.0
sI1156
F1647.0
sI1157
F1403.0
sI1158
F1582.0
sI1159
F1528.0
sI1160
F1627.0
sI1161
F1495.0
sI1162
F1465.0
sI1163
F1924.0
sI1164
F1444.0
sI1165
F1682.0
sI1166
F1852.0
sI1167
F1423.0
sI1168
F1723.0
sI1169
F1595.0
sI1170
F1277.0
sI1171
F1338.0
sI1172
F1956.0
sI1173
F1801.0
sI1174
F1509.0
sI1175
F1487.0
sI1176
F1395.0
sI1177
F1725.0
sI1178
F1426.0
sI1179
F1886.0
sI1180
F1541.0
sI1181
F2032.0
sI1182
F1574.0
sI1183
F1320.0
sI1184
F1480.0
sI1185
F1531.0
sI1186
F1454.0
sI1187
F1420.0
sI1189
F1496.0
sI1190
F1619.0
sI1191
F1528.0
sI1192
F1343.0
sI1193
F1566.0
sI1194
F1548.0
sI1195
F1413.0
sI1196
F1907.0
sI1197
F1442.0
sI1198
F1443.0
sI1199
F1851.0
sI1200
F1623.0
sI1201
F1593.0
sI1202
F1403.0
sI1203
F1680.0
sI1204
F1602.0
sI1205
F1474.0
sI1206
F1744.0
sI1207
F2065.0
sI1208
F1803.0
sI1209
F1441.0
sI1210
F1813.0
sI1211
F1904.0
sI1212
F1288.0
sI1214
F1491.0
sI1216
F1519.0
sI1217
F1365.0
sI1218
F1551.0
sI1219
F1488.0
sI1220
F1614.0
sI1221
F1595.0
sI1222
F1763.0
sI1223
F1488.0
sI1224
F1168.0
sI1225
F1353.0
sI1226
F1465.0
sI1227
F1643.0
sI1228
F1813.0
sI1229
F1825.0
sI1231
F1915.0
sI1232
F1656.0
sI1233
F1418.0
sI1234
F1692.0
sI1235
F1657.0
sI1236
F1441.0
sI1237
F1685.0
sI1238
F1397.0
sI1239
F1507.0
sI1240
F1294.0
sI1241
F1428.0
sI1242
F2165.0
sI1243
F1846.0
sI1244
F1365.0
sI1245
F1877.0
sI1246
F1883.0
sI1247
F1584.0
sI1248
F1430.0
sI1249
F1579.0
sI1250
F1467.0
sI1251
F1409.0
sI1252
F1507.0
sI1253
F1433.0
sI1254
F1419.0
sI1255
F1255.0
sI1256
F1414.0
sI1257
F2031.0
sI1258
F1370.0
sI1259
F1624.0
sI1260
F1556.0
sI1261
F1741.0
sI1263
F1278.0
sI1264
F1446.0
sI1265
F1638.0
sI1266
F1943.0
sI1267
F1605.0
sI1268
F1842.0
sI1269
F1820.0
sI1270
F1463.0
sI1271
F1101.0
sI1272
F2147.0
sI1273
F1330.0
sI1274
F1842.0
sI1275
F1719.0
sI1276
F1685.0
sI1277
F1971.0
sI1278
F1759.0
sI1279
F1824.0
sI1280
F1906.0
sI1281
F1729.0
sI1282
F1412.0
sI1283
F1753.0
sI1284
F1320.0
sI1285
F1515.0
sI1286
F1468.0
sI1287
F1421.0
sI1288
F1525.0
sI1290
F1483.0
sI1291
F1547.0
sI1292
F1630.0
sI1293
F1556.0
sI1294
F1389.0
sI1295
F1576.0
sI1296
F1387.0
sI1298
F1496.0
sI1299
F1376.0
sI1300
F1384.0
sI1301
F1753.0
sI1304
F1803.0
sI1305
F1851.0
sI1306
F1347.0
sI1307
F1807.0
sI1308
F1766.0
sI1309
F1552.0
sI1310
F1667.0
sI1311
F1387.0
sI1312
F1123.0
sI1313
F1401.0
sI1314
F2155.0
sI1316
F1122.0
sI1317
F1636.0
sI1318
F1608.0
sI1319
F1648.0
sI1320
F1747.0
sI1321
F1549.0
sI1322
F1548.0
sI1323
F1952.0
sI1324
F1564.0
sI1325
F1696.0
sI1326
F1925.0
sI1328
F1878.0
sI1329
F1832.0
sI1330
F1718.0
sI1331
F1755.0
sI1332
F1830.0
sI1333
F1490.0
sI1334
F1652.0
sI1335
F1569.0
sI1336
F1690.0
sI1337
F1476.0
sI1338
F2008.0
sI1339
F1413.0
sI1340
F1688.0
sI1341
F1217.0
sI1342
F1373.0
sI1343
F1319.0
sI1344
F1755.0
sI1345
F1904.0
sI1346
F1456.0
sI1347
F1332.0
sI1348
F1728.0
sI1349
F1367.0
sI1350
F1624.0
sI1351
F1671.0
sI1352
F1653.0
sI1353
F1607.0
sI1354
F1363.0
sI1355
F1277.0
sI1356
F1841.0
sI1357
F1569.0
sI1358
F1649.0
sI1359
F1460.0
sI1360
F1756.0
sI1361
F1772.0
sI1362
F1504.0
sI1363
F1451.0
sI1364
F1691.0
sI1365
F1607.0
sI1366
F1314.0
sI1367
F1399.0
sI1368
F1521.0
sI1369
F1320.0
sI1371
F1704.0
sI1372
F1652.0
sI1373
F1752.0
sI1374
F1453.0
sI1375
F1772.0
sI1376
F1729.0
sI1378
F1599.0
sI1379
F1663.0
sI1380
F1330.0
sI1381
F1462.0
sI1382
F1397.0
sI1383
F1307.0
sI1384
F1229.0
sI1385
F1677.0
sI1386
F1789.0
sI1387
F1702.0
sI1388
F1797.0
sI1389
F1299.0
sI1390
F1968.0
sI1391
F1434.0
sI1392
F1280.0
sI1393
F1885.0
sI1394
F1512.0
sI1395
F1602.0
sI1396
F1801.0
sI1397
F2061.0
sI1398
F1480.0
sI1399
F1473.0
sI1400
F2064.0
sI1401
F1934.0
sI1402
F1364.0
sI1403
F1780.0
sI1404
F1470.0
sI1405
F1610.0
sI1406
F1544.0
sI1407
F1467.0
sI1408
F1622.0
sI1409
F1720.0
sI1410
F1435.0
sI1411
F1229.0
sI1412
F1775.0
sI1413
F1310.0
sI1414
F1621.0
sI1415
F1378.0
sI1416
F1645.0
sI1417
F2118.0
sI1418
F1555.0
sI1419
F1410.0
sI1420
F1624.0
sI1421
F1550.0
sI1422
F1646.0
sI1423
F1653.0
sI1424
F1952.0
sI1425
F1895.0
sI1426
F1559.0
sI1427
F1390.0
sI1428
F1710.0
sI1429
F1794.0
sI1430
F1553.0
sI1431
F1671.0
sI1433
F1843.0
sI1434
F1655.0
sI1435
F1918.0
sI1436
F1563.0
sI1437
F1947.0
sI1438
F1786.0
sI1439
F1863.0
sI1440
F1349.0
sI1441
F1403.0
sI1442
F1335.0
sI1443
F1855.0
sI1444
F1697.0
sI1445
F1330.0
sI1447
F1579.0
sI1448
F1798.0
sI1449
F1787.0
sI1450
F1943.0
sI1451
F1581.0
sI1452
F1952.0
sI1453
F1596.0
sI1454
F1566.0
sI1455
F1593.0
sI1456
F1595.0
sI1457
F1726.0
sI1458
F2072.0
sI1459
F1461.0
sI1460
F1731.0
sI1461
F1601.0
sI1462
F1986.0
sI1463
F1507.0
sI1464
F1427.0
ssI2009
(dp25
I1102
F1528.0
sI1103
F1747.0
sI1104
F1816.0
sI1105
F1238.0
sI1106
F1518.0
sI1107
F1489.0
sI1108
F1144.0
sI1110
F1732.0
sI1111
F1510.0
sI1112
F1899.0
sI1113
F1919.0
sI1114
F1719.0
sI1115
F1347.0
sI1116
F1747.0
sI1117
F1408.0
sI1119
F1427.0
sI1120
F1867.0
sI1122
F1611.0
sI1123
F1470.0
sI1124
F1822.0
sI1125
F1617.0
sI1126
F1327.0
sI1127
F1653.0
sI1129
F1690.0
sI1130
F1858.0
sI1131
F1549.0
sI1132
F1618.0
sI1133
F1760.0
sI1135
F1434.0
sI1136
F1408.0
sI1137
F1386.0
sI1138
F1657.0
sI1139
F1928.0
sI1140
F1912.0
sI1141
F1496.0
sI1142
F1382.0
sI1143
F1853.0
sI1144
F1394.0
sI1145
F1426.0
sI1146
F1317.0
sI1147
F1319.0
sI1148
F1437.0
sI1149
F1255.0
sI1150
F1625.0
sI1151
F1597.0
sI1152
F1474.0
sI1153
F1772.0
sI1154
F1508.0
sI1155
F1908.0
sI1156
F1802.0
sI1157
F1322.0
sI1158
F1709.0
sI1159
F1402.0
sI1160
F1520.0
sI1161
F1508.0
sI1162
F1442.0
sI1163
F2096.0
sI1164
F1429.0
sI1165
F1685.0
sI1166
F1924.0
sI1167
F1387.0
sI1168
F1563.0
sI1169
F1632.0
sI1170
F1191.0
sI1171
F1357.0
sI1172
F1861.0
sI1173
F1879.0
sI1174
F1511.0
sI1175
F1322.0
sI1176
F1505.0
sI1177
F1592.0
sI1178
F1385.0
sI1179
F1733.0
sI1180
F1577.0
sI1181
F2099.0
sI1182
F1740.0
sI1183
F1359.0
sI1184
F1516.0
sI1185
F1430.0
sI1186
F1430.0
sI1187
F1469.0
sI1188
F1429.0
sI1189
F1438.0
sI1190
F1627.0
sI1191
F1673.0
sI1192
F1283.0
sI1193
F1582.0
sI1194
F1368.0
sI1195
F1347.0
sI1196
F1893.0
sI1197
F1341.0
sI1198
F1497.0
sI1199
F1952.0
sI1200
F1406.0
sI1201
F1520.0
sI1202
F1306.0
sI1203
F1569.0
sI1204
F1402.0
sI1205
F1411.0
sI1206
F1741.0
sI1207
F1897.0
sI1208
F1697.0
sI1209
F1489.0
sI1210
F1731.0
sI1211
F2007.0
sI1212
F1141.0
sI1214
F1433.0
sI1216
F1331.0
sI1217
F1444.0
sI1218
F1506.0
sI1219
F1340.0
sI1220
F1673.0
sI1221
F1611.0
sI1222
F1781.0
sI1223
F1335.0
sI1224
F1209.0
sI1225
F1526.0
sI1226
F1507.0
sI1227
F1650.0
sI1228
F1897.0
sI1229
F1836.0
sI1231
F1650.0
sI1232
F1647.0
sI1233
F1434.0
sI1234
F1715.0
sI1235
F1662.0
sI1236
F1454.0
sI1237
F1559.0
sI1238
F1466.0
sI1239
F1550.0
sI1240
F1310.0
sI1241
F1578.0
sI1242
F2063.0
sI1243
F1850.0
sI1244
F1230.0
sI1245
F1739.0
sI1246
F1857.0
sI1247
F1691.0
sI1248
F1352.0
sI1249
F1503.0
sI1250
F1429.0
sI1251
F1523.0
sI1252
F1525.0
sI1253
F1529.0
sI1254
F1452.0
sI1255
F1343.0
sI1256
F1533.0
sI1257
F2111.0
sI1258
F1300.0
sI1259
F1487.0
sI1260
F1544.0
sI1261
F1930.0
sI1263
F1286.0
sI1264
F1517.0
sI1265
F1451.0
sI1266
F1957.0
sI1267
F1591.0
sI1268
F1898.0
sI1269
F1694.0
sI1270
F1398.0
sI1271
F1120.0
sI1272
F2127.0
sI1273
F1436.0
sI1274
F1850.0
sI1275
F1689.0
sI1276
F1835.0
sI1277
F2100.0
sI1278
F1834.0
sI1279
F1779.0
sI1280
F1911.0
sI1281
F2002.0
sI1282
F1310.0
sI1283
F1605.0
sI1284
F1306.0
sI1285
F1559.0
sI1286
F1488.0
sI1287
F1555.0
sI1288
F1601.0
sI1290
F1282.0
sI1291
F1580.0
sI1292
F1609.0
sI1293
F1585.0
sI1294
F1442.0
sI1295
F1721.0
sI1296
F1389.0
sI1298
F1527.0
sI1299
F1383.0
sI1300
F1248.0
sI1301
F1790.0
sI1304
F1793.0
sI1305
F1791.0
sI1306
F1457.0
sI1307
F1856.0
sI1308
F1694.0
sI1309
F1447.0
sI1310
F1764.0
sI1311
F1552.0
sI1312
F1028.0
sI1313
F1385.0
sI1314
F2180.0
sI1315
F1542.0
sI1316
F1207.0
sI1317
F1670.0
sI1318
F1652.0
sI1319
F1459.0
sI1320
F1845.0
sI1321
F1738.0
sI1322
F1393.0
sI1323
F1902.0
sI1324
F1640.0
sI1325
F1583.0
sI1326
F1929.0
sI1328
F2017.0
sI1329
F1915.0
sI1330
F1749.0
sI1331
F1626.0
sI1332
F1675.0
sI1333
F1633.0
sI1334
F1634.0
sI1335
F1455.0
sI1336
F1829.0
sI1337
F1438.0
sI1338
F2097.0
sI1339
F1600.0
sI1340
F1689.0
sI1341
F1326.0
sI1342
F1398.0
sI1343
F1420.0
sI1344
F1829.0
sI1345
F1987.0
sI1346
F1466.0
sI1347
F1548.0
sI1348
F1796.0
sI1349
F1437.0
sI1350
F1693.0
sI1351
F1649.0
sI1352
F1679.0
sI1353
F1577.0
sI1354
F1410.0
sI1355
F1362.0
sI1356
F1716.0
sI1357
F1563.0
sI1358
F1615.0
sI1359
F1492.0
sI1360
F1651.0
sI1361
F1863.0
sI1362
F1448.0
sI1363
F1495.0
sI1364
F1615.0
sI1365
F1610.0
sI1366
F1376.0
sI1367
F1376.0
sI1368
F1468.0
sI1369
F1174.0
sI1370
F1636.0
sI1371
F1755.0
sI1372
F1711.0
sI1373
F1862.0
sI1374
F1450.0
sI1375
F1711.0
sI1376
F1839.0
sI1377
F1566.0
sI1378
F1590.0
sI1379
F1592.0
sI1380
F1240.0
sI1381
F1428.0
sI1382
F1539.0
sI1383
F1348.0
sI1384
F1218.0
sI1385
F1733.0
sI1386
F1733.0
sI1387
F1714.0
sI1388
F1872.0
sI1389
F1404.0
sI1390
F1845.0
sI1391
F1393.0
sI1392
F1428.0
sI1393
F2005.0
sI1394
F1563.0
sI1395
F1611.0
sI1396
F1855.0
sI1397
F1952.0
sI1398
F1459.0
sI1399
F1384.0
sI1400
F1968.0
sI1401
F1938.0
sI1402
F1417.0
sI1403
F1723.0
sI1404
F1590.0
sI1405
F1444.0
sI1406
F1494.0
sI1407
F1636.0
sI1408
F1601.0
sI1409
F1835.0
sI1410
F1332.0
sI1411
F1219.0
sI1412
F1801.0
sI1413
F1417.0
sI1414
F1528.0
sI1415
F1502.0
sI1416
F1616.0
sI1417
F2030.0
sI1418
F1463.0
sI1419
F1411.0
sI1420
F1541.0
sI1421
F1478.0
sI1422
F1392.0
sI1423
F1451.0
sI1424
F1862.0
sI1425
F1930.0
sI1426
F1524.0
sI1427
F1505.0
sI1428
F1875.0
sI1429
F1871.0
sI1430
F1524.0
sI1431
F1742.0
sI1433
F1824.0
sI1434
F1527.0
sI1435
F1886.0
sI1436
F1679.0
sI1437
F2070.0
sI1438
F1728.0
sI1439
F1857.0
sI1440
F1515.0
sI1441
F1489.0
sI1442
F1310.0
sI1443
F1852.0
sI1444
F1488.0
sI1445
F1226.0
sI1447
F1503.0
sI1448
F1932.0
sI1449
F1958.0
sI1450
F1857.0
sI1451
F1675.0
sI1452
F1949.0
sI1453
F1722.0
sI1454
F1631.0
sI1455
F1702.0
sI1456
F1480.0
sI1457
F1511.0
sI1458
F1940.0
sI1459
F1544.0
sI1460
F1748.0
sI1461
F1691.0
sI1462
F1958.0
sI1463
F1484.0
sI1464
F1483.0
ssI2010
(dp26
I1102
F1482.0
sI1103
F1762.0
sI1104
F1809.0
sI1105
F1224.0
sI1106
F1423.0
sI1107
F1321.0
sI1108
F1048.0
sI1110
F1502.0
sI1111
F1648.0
sI1112
F1842.0
sI1113
F1925.0
sI1114
F1465.0
sI1115
F1464.0
sI1116
F1726.0
sI1117
F1523.0
sI1119
F1390.0
sI1120
F1768.0
sI1122
F1552.0
sI1123
F1499.0
sI1124
F2006.0
sI1125
F1581.0
sI1126
F1323.0
sI1127
F1510.0
sI1129
F1606.0
sI1130
F1803.0
sI1131
F1605.0
sI1132
F1558.0
sI1133
F1763.0
sI1135
F1387.0
sI1136
F1180.0
sI1137
F1452.0
sI1138
F1650.0
sI1139
F2087.0
sI1140
F1982.0
sI1141
F1522.0
sI1142
F1435.0
sI1143
F1960.0
sI1144
F1490.0
sI1145
F1489.0
sI1146
F1277.0
sI1147
F1270.0
sI1148
F1394.0
sI1149
F1308.0
sI1150
F1698.0
sI1151
F1483.0
sI1152
F1295.0
sI1153
F1821.0
sI1154
F1515.0
sI1155
F1922.0
sI1156
F1681.0
sI1157
F1561.0
sI1158
F1701.0
sI1159
F1387.0
sI1160
F1661.0
sI1161
F1623.0
sI1162
F1393.0
sI1163
F1905.0
sI1164
F1240.0
sI1165
F1867.0
sI1166
F1798.0
sI1167
F1357.0
sI1168
F1527.0
sI1169
F1465.0
sI1170
F1264.0
sI1171
F1245.0
sI1172
F1665.0
sI1173
F1813.0
sI1174
F1415.0
sI1175
F1404.0
sI1176
F1574.0
sI1177
F1546.0
sI1178
F1602.0
sI1179
F1677.0
sI1180
F1602.0
sI1181
F2173.0
sI1182
F1691.0
sI1183
F1522.0
sI1184
F1542.0
sI1185
F1503.0
sI1186
F1389.0
sI1187
F1441.0
sI1188
F1282.0
sI1189
F1392.0
sI1190
F1588.0
sI1191
F1570.0
sI1192
F1326.0
sI1193
F1694.0
sI1194
F1480.0
sI1195
F1281.0
sI1196
F1880.0
sI1197
F1280.0
sI1198
F1365.0
sI1199
F1948.0
sI1200
F1293.0
sI1201
F1560.0
sI1202
F1376.0
sI1203
F1628.0
sI1204
F1378.0
sI1205
F1306.0
sI1206
F1674.0
sI1207
F1965.0
sI1208
F1749.0
sI1209
F1478.0
sI1210
F1900.0
sI1211
F2002.0
sI1212
F1122.0
sI1214
F1410.0
sI1216
F1317.0
sI1217
F1613.0
sI1218
F1465.0
sI1219
F1385.0
sI1220
F1688.0
sI1221
F1427.0
sI1222
F1743.0
sI1223
F1365.0
sI1224
F1178.0
sI1225
F1573.0
sI1226
F1377.0
sI1227
F1510.0
sI1228
F1894.0
sI1229
F1837.0
sI1231
F1618.0
sI1232
F1708.0
sI1233
F1636.0
sI1234
F1651.0
sI1235
F1720.0
sI1236
F1499.0
sI1237
F1668.0
sI1238
F1505.0
sI1239
F1572.0
sI1240
F1319.0
sI1241
F1502.0
sI1242
F2140.0
sI1243
F2025.0
sI1244
F1306.0
sI1245
F1780.0
sI1246
F2100.0
sI1247
F1605.0
sI1248
F1474.0
sI1249
F1414.0
sI1250
F1575.0
sI1251
F1456.0
sI1252
F1519.0
sI1253
F1588.0
sI1254
F1423.0
sI1255
F1316.0
sI1256
F1680.0
sI1257
F1976.0
sI1258
F1554.0
sI1259
F1461.0
sI1260
F1525.0
sI1261
F1730.0
sI1263
F1481.0
sI1264
F1454.0
sI1265
F1244.0
sI1266
F1963.0
sI1267
F1741.0
sI1268
F1980.0
sI1269
F1634.0
sI1270
F1350.0
sI1271
F1235.0
sI1272
F1991.0
sI1273
F1462.0
sI1274
F1847.0
sI1275
F1633.0
sI1276
F1802.0
sI1277
F2060.0
sI1278
F1891.0
sI1279
F1864.0
sI1280
F1923.0
sI1281
F1940.0
sI1282
F1356.0
sI1283
F1722.0
sI1284
F1325.0
sI1285
F1651.0
sI1286
F1506.0
sI1287
F1644.0
sI1288
F1659.0
sI1290
F1222.0
sI1291
F1574.0
sI1292
F1625.0
sI1293
F1772.0
sI1294
F1626.0
sI1295
F1505.0
sI1296
F1394.0
sI1298
F1431.0
sI1299
F1287.0
sI1300
F1193.0
sI1301
F1841.0
sI1304
F1735.0
sI1305
F1767.0
sI1306
F1454.0
sI1307
F1986.0
sI1308
F1781.0
sI1309
F1332.0
sI1310
F1652.0
sI1311
F1466.0
sI1312
F1131.0
sI1313
F1361.0
sI1314
F1901.0
sI1315
F1290.0
sI1316
F1329.0
sI1317
F1725.0
sI1318
F1729.0
sI1319
F1501.0
sI1320
F1998.0
sI1321
F1781.0
sI1322
F1352.0
sI1323
F1933.0
sI1324
F1757.0
sI1325
F1724.0
sI1326
F2050.0
sI1328
F1799.0
sI1329
F1918.0
sI1330
F1870.0
sI1331
F1652.0
sI1332
F1740.0
sI1333
F1712.0
sI1334
F1651.0
sI1335
F1363.0
sI1336
F1722.0
sI1337
F1372.0
sI1338
F2032.0
sI1339
F1723.0
sI1340
F1535.0
sI1341
F1315.0
sI1342
F1263.0
sI1343
F1576.0
sI1344
F1715.0
sI1345
F2067.0
sI1346
F1578.0
sI1347
F1559.0
sI1348
F1836.0
sI1349
F1370.0
sI1350
F1871.0
sI1351
F1608.0
sI1352
F1675.0
sI1353
F1660.0
sI1354
F1413.0
sI1355
F1429.0
sI1356
F1666.0
sI1357
F1431.0
sI1358
F1708.0
sI1359
F1411.0
sI1360
F1531.0
sI1361
F1927.0
sI1362
F1495.0
sI1363
F1535.0
sI1364
F1683.0
sI1365
F1470.0
sI1366
F1326.0
sI1367
F1304.0
sI1368
F1520.0
sI1369
F1204.0
sI1370
F1602.0
sI1371
F1847.0
sI1372
F1664.0
sI1373
F1871.0
sI1374
F1525.0
sI1375
F1594.0
sI1376
F1777.0
sI1377
F1605.0
sI1378
F1798.0
sI1379
F1661.0
sI1380
F1125.0
sI1381
F1314.0
sI1382
F1635.0
sI1383
F1326.0
sI1384
F1321.0
sI1385
F1798.0
sI1386
F1623.0
sI1387
F1783.0
sI1388
F1953.0
sI1389
F1511.0
sI1390
F1776.0
sI1391
F1283.0
sI1392
F1569.0
sI1393
F2084.0
sI1394
F1554.0
sI1395
F1601.0
sI1396
F1985.0
sI1397
F2036.0
sI1398
F1394.0
sI1399
F1440.0
sI1400
F1953.0
sI1401
F1996.0
sI1402
F1468.0
sI1403
F1769.0
sI1404
F1306.0
sI1405
F1300.0
sI1406
F1490.0
sI1407
F1685.0
sI1408
F1481.0
sI1409
F1812.0
sI1410
F1254.0
sI1411
F1316.0
sI1412
F1829.0
sI1413
F1468.0
sI1414
F1445.0
sI1415
F1455.0
sI1416
F1602.0
sI1417
F1832.0
sI1418
F1482.0
sI1419
F1420.0
sI1420
F1332.0
sI1421
F1467.0
sI1422
F1394.0
sI1423
F1436.0
sI1424
F1906.0
sI1425
F1826.0
sI1426
F1494.0
sI1427
F1555.0
sI1428
F1750.0
sI1429
F1895.0
sI1430
F1340.0
sI1431
F1880.0
sI1433
F1805.0
sI1434
F1571.0
sI1435
F1933.0
sI1436
F1693.0
sI1437
F2013.0
sI1438
F1761.0
sI1439
F1930.0
sI1440
F1353.0
sI1441
F1583.0
sI1442
F1354.0
sI1443
F1739.0
sI1444
F1564.0
sI1445
F1262.0
sI1447
F1264.0
sI1448
F1937.0
sI1449
F2012.0
sI1450
F1763.0
sI1451
F1689.0
sI1452
F2112.0
sI1453
F1707.0
sI1454
F1697.0
sI1455
F1832.0
sI1456
F1682.0
sI1457
F1537.0
sI1458
F1971.0
sI1459
F1744.0
sI1460
F1742.0
sI1461
F1543.0
sI1462
F1996.0
sI1463
F1415.0
sI1464
F1392.0
ssI2011
(dp27
I1102
F1612.0
sI1103
F1757.0
sI1104
F1885.0
sI1105
F1237.0
sI1106
F1397.0
sI1107
F1455.0
sI1108
F1041.0
sI1110
F1582.0
sI1111
F1593.0
sI1112
F2013.0
sI1113
F1753.0
sI1114
F1555.0
sI1115
F1250.0
sI1116
F1755.0
sI1117
F1559.0
sI1119
F1306.0
sI1120
F1659.0
sI1122
F1565.0
sI1123
F1580.0
sI1124
F1877.0
sI1125
F1762.0
sI1126
F1444.0
sI1127
F1357.0
sI1129
F1702.0
sI1130
F1880.0
sI1131
F1651.0
sI1132
F1529.0
sI1133
F1650.0
sI1135
F1370.0
sI1136
F1258.0
sI1137
F1658.0
sI1138
F1633.0
sI1139
F2029.0
sI1140
F2064.0
sI1141
F1447.0
sI1142
F1506.0
sI1143
F1881.0
sI1144
F1354.0
sI1145
F1537.0
sI1146
F1169.0
sI1147
F1154.0
sI1148
F1490.0
sI1149
F1389.0
sI1150
F1568.0
sI1151
F1509.0
sI1152
F1177.0
sI1153
F1963.0
sI1154
F1388.0
sI1155
F1935.0
sI1156
F1800.0
sI1157
F1660.0
sI1158
F1730.0
sI1159
F1306.0
sI1160
F1831.0
sI1161
F1749.0
sI1162
F1447.0
sI1163
F2122.0
sI1164
F1341.0
sI1165
F1584.0
sI1166
F1768.0
sI1167
F1336.0
sI1168
F1438.0
sI1169
F1495.0
sI1170
F1253.0
sI1171
F1211.0
sI1172
F1607.0
sI1173
F1811.0
sI1174
F1527.0
sI1175
F1255.0
sI1176
F1510.0
sI1177
F1525.0
sI1178
F1643.0
sI1179
F1638.0
sI1180
F1708.0
sI1181
F2131.0
sI1182
F1716.0
sI1183
F1333.0
sI1184
F1442.0
sI1185
F1383.0
sI1186
F1394.0
sI1187
F1645.0
sI1188
F1242.0
sI1189
F1440.0
sI1190
F1643.0
sI1191
F1651.0
sI1192
F1199.0
sI1193
F1727.0
sI1194
F1637.0
sI1195
F1325.0
sI1196
F2045.0
sI1197
F1234.0
sI1198
F1398.0
sI1199
F1966.0
sI1200
F1346.0
sI1201
F1567.0
sI1202
F1581.0
sI1203
F1688.0
sI1204
F1239.0
sI1205
F1338.0
sI1206
F1866.0
sI1207
F1963.0
sI1208
F1846.0
sI1209
F1481.0
sI1210
F1774.0
sI1211
F1976.0
sI1212
F1246.0
sI1214
F1521.0
sI1216
F1361.0
sI1217
F1710.0
sI1218
F1609.0
sI1219
F1371.0
sI1220
F1729.0
sI1221
F1375.0
sI1222
F1574.0
sI1223
F1215.0
sI1224
F1151.0
sI1225
F1636.0
sI1226
F1354.0
sI1227
F1428.0
sI1228
F1902.0
sI1229
F1626.0
sI1231
F1617.0
sI1232
F1803.0
sI1233
F1705.0
sI1234
F1673.0
sI1235
F1730.0
sI1236
F1520.0
sI1237
F1633.0
sI1238
F1400.0
sI1239
F1547.0
sI1240
F1226.0
sI1241
F1669.0
sI1242
F2187.0
sI1243
F1997.0
sI1244
F1272.0
sI1245
F1756.0
sI1246
F2106.0
sI1247
F1641.0
sI1248
F1424.0
sI1249
F1387.0
sI1250
F1485.0
sI1251
F1473.0
sI1252
F1512.0
sI1253
F1696.0
sI1254
F1647.0
sI1255
F1306.0
sI1256
F1498.0
sI1257
F2018.0
sI1258
F1476.0
sI1259
F1520.0
sI1260
F1574.0
sI1261
F1614.0
sI1263
F1447.0
sI1264
F1344.0
sI1265
F1273.0
sI1266
F1970.0
sI1267
F1784.0
sI1268
F1903.0
sI1269
F1619.0
sI1270
F1521.0
sI1271
F1220.0
sI1272
F1920.0
sI1273
F1497.0
sI1274
F1851.0
sI1275
F1653.0
sI1276
F1909.0
sI1277
F1924.0
sI1278
F1819.0
sI1279
F1829.0
sI1280
F1834.0
sI1281
F1926.0
sI1282
F1435.0
sI1283
F1864.0
sI1284
F1293.0
sI1285
F1657.0
sI1286
F1430.0
sI1287
F1733.0
sI1288
F1520.0
sI1290
F1282.0
sI1291
F1424.0
sI1292
F1565.0
sI1293
F1733.0
sI1294
F1678.0
sI1295
F1478.0
sI1296
F1372.0
sI1298
F1373.0
sI1299
F1340.0
sI1300
F1287.0
sI1301
F1789.0
sI1304
F1817.0
sI1305
F1633.0
sI1306
F1383.0
sI1307
F1902.0
sI1308
F1678.0
sI1310
F1461.0
sI1311
F1455.0
sI1312
F1265.0
sI1313
F1343.0
sI1314
F2086.0
sI1315
F1392.0
sI1316
F1467.0
sI1317
F1662.0
sI1318
F1576.0
sI1319
F1562.0
sI1320
F1811.0
sI1321
F1824.0
sI1322
F1471.0
sI1323
F2061.0
sI1324
F1811.0
sI1325
F1654.0
sI1326
F2131.0
sI1328
F1776.0
sI1329
F1897.0
sI1330
F1923.0
sI1331
F1662.0
sI1332
F1763.0
sI1333
F1647.0
sI1334
F1545.0
sI1335
F1454.0
sI1336
F1871.0
sI1337
F1462.0
sI1338
F2068.0
sI1339
F1718.0
sI1340
F1468.0
sI1341
F1217.0
sI1342
F1373.0
sI1343
F1717.0
sI1344
F1719.0
sI1345
F2039.0
sI1346
F1602.0
sI1347
F1293.0
sI1348
F1775.0
sI1349
F1514.0
sI1350
F1985.0
sI1351
F1701.0
sI1352
F1604.0
sI1353
F1719.0
sI1354
F1269.0
sI1355
F1534.0
sI1356
F1632.0
sI1357
F1364.0
sI1358
F1626.0
sI1359
F1377.0
sI1360
F1415.0
sI1361
F2091.0
sI1362
F1634.0
sI1363
F1611.0
sI1364
F1633.0
sI1365
F1594.0
sI1366
F1378.0
sI1367
F1244.0
sI1368
F1482.0
sI1369
F1276.0
sI1370
F1466.0
sI1371
F1813.0
sI1372
F1579.0
sI1373
F1610.0
sI1374
F1577.0
sI1375
F1503.0
sI1376
F1734.0
sI1377
F1448.0
sI1378
F1691.0
sI1379
F1742.0
sI1380
F1036.0
sI1381
F1383.0
sI1382
F1682.0
sI1383
F1411.0
sI1384
F1306.0
sI1385
F1938.0
sI1386
F1608.0
sI1387
F1677.0
sI1388
F1898.0
sI1389
F1640.0
sI1390
F1733.0
sI1391
F1261.0
sI1392
F1497.0
sI1393
F2070.0
sI1394
F1422.0
sI1395
F1545.0
sI1396
F2014.0
sI1397
F1895.0
sI1398
F1415.0
sI1399
F1548.0
sI1400
F2044.0
sI1401
F1985.0
sI1402
F1507.0
sI1403
F1745.0
sI1404
F1346.0
sI1405
F1218.0
sI1406
F1330.0
sI1407
F1495.0
sI1408
F1466.0
sI1409
F1794.0
sI1410
F1146.0
sI1411
F1440.0
sI1412
F1851.0
sI1413
F1397.0
sI1414
F1444.0
sI1415
F1453.0
sI1416
F1684.0
sI1417
F1920.0
sI1418
F1572.0
sI1419
F1338.0
sI1420
F1258.0
sI1421
F1556.0
sI1422
F1387.0
sI1423
F1480.0
sI1424
F1942.0
sI1425
F1852.0
sI1426
F1444.0
sI1427
F1589.0
sI1428
F1686.0
sI1429
F1968.0
sI1430
F1430.0
sI1431
F1883.0
sI1433
F1918.0
sI1434
F1720.0
sI1435
F1947.0
sI1436
F1688.0
sI1437
F1938.0
sI1438
F1805.0
sI1439
F1946.0
sI1440
F1460.0
sI1441
F1611.0
sI1442
F1223.0
sI1443
F1632.0
sI1444
F1647.0
sI1447
F1352.0
sI1448
F1659.0
sI1449
F1970.0
sI1450
F1835.0
sI1451
F1628.0
sI1452
F2027.0
sI1453
F1614.0
sI1454
F1760.0
sI1455
F1869.0
sI1456
F1537.0
sI1457
F1455.0
sI1458
F2025.0
sI1459
F1749.0
sI1460
F1708.0
sI1461
F1504.0
sI1462
F1972.0
sI1463
F1492.0
sI1464
F1404.0
ssI2012
(dp28
I1102
F1594.0
sI1103
F1771.0
sI1104
F1899.0
sI1105
F1132.0
sI1106
F1265.0
sI1107
F1495.0
sI1108
F1100.0
sI1110
F1589.0
sI1111
F1485.0
sI1112
F1939.0
sI1113
F1654.0
sI1114
F1581.0
sI1115
F1273.0
sI1116
F1747.0
sI1117
F1508.0
sI1119
F1322.0
sI1120
F1692.0
sI1122
F1472.0
sI1123
F1505.0
sI1124
F2069.0
sI1125
F1791.0
sI1126
F1429.0
sI1127
F1176.0
sI1129
F1645.0
sI1130
F1672.0
sI1131
F1567.0
sI1132
F1593.0
sI1133
F1494.0
sI1135
F1296.0
sI1136
F1124.0
sI1137
F1695.0
sI1138
F1713.0
sI1139
F1819.0
sI1140
F1975.0
sI1141
F1407.0
sI1142
F1515.0
sI1143
F1894.0
sI1144
F1409.0
sI1145
F1332.0
sI1146
F1197.0
sI1148
F1444.0
sI1149
F1483.0
sI1150
F1584.0
sI1151
F1374.0
sI1152
F1120.0
sI1153
F2050.0
sI1154
F1292.0
sI1155
F1833.0
sI1156
F1765.0
sI1157
F1550.0
sI1158
F1666.0
sI1159
F1258.0
sI1160
F1902.0
sI1161
F1817.0
sI1162
F1443.0
sI1163
F1947.0
sI1164
F1335.0
sI1165
F1526.0
sI1166
F1944.0
sI1167
F1458.0
sI1168
F1578.0
sI1169
F1362.0
sI1170
F1311.0
sI1171
F1189.0
sI1172
F1746.0
sI1173
F1803.0
sI1174
F1636.0
sI1175
F1350.0
sI1176
F1662.0
sI1177
F1608.0
sI1178
F1766.0
sI1179
F1691.0
sI1180
F1850.0
sI1181
F2093.0
sI1182
F1701.0
sI1183
F1316.0
sI1184
F1394.0
sI1185
F1449.0
sI1186
F1445.0
sI1187
F1627.0
sI1188
F1291.0
sI1189
F1467.0
sI1190
F1581.0
sI1191
F1707.0
sI1192
F1135.0
sI1193
F1692.0
sI1194
F1518.0
sI1195
F1427.0
sI1196
F2030.0
sI1197
F1231.0
sI1198
F1398.0
sI1199
F2033.0
sI1200
F1459.0
sI1201
F1529.0
sI1202
F1519.0
sI1203
F1596.0
sI1204
F1432.0
sI1205
F1314.0
sI1206
F1824.0
sI1207
F2009.0
sI1208
F1817.0
sI1209
F1648.0
sI1210
F1663.0
sI1211
F2010.0
sI1212
F1114.0
sI1214
F1359.0
sI1216
F1354.0
sI1217
F1807.0
sI1218
F1597.0
sI1219
F1400.0
sI1220
F1532.0
sI1221
F1478.0
sI1222
F1608.0
sI1223
F1198.0
sI1224
F1239.0
sI1225
F1656.0
sI1226
F1340.0
sI1227
F1400.0
sI1228
F1826.0
sI1229
F1750.0
sI1231
F1933.0
sI1232
F1761.0
sI1233
F1784.0
sI1234
F1782.0
sI1235
F1928.0
sI1236
F1423.0
sI1237
F1557.0
sI1238
F1198.0
sI1239
F1415.0
sI1240
F1368.0
sI1241
F1511.0
sI1242
F2194.0
sI1243
F1999.0
sI1244
F1150.0
sI1245
F1721.0
sI1246
F2208.0
sI1247
F1751.0
sI1248
F1420.0
sI1249
F1573.0
sI1250
F1686.0
sI1251
F1434.0
sI1252
F1430.0
sI1253
F1804.0
sI1254
F1705.0
sI1255
F1213.0
sI1256
F1602.0
sI1257
F2112.0
sI1258
F1650.0
sI1259
F1689.0
sI1260
F1434.0
sI1261
F1770.0
sI1263
F1375.0
sI1264
F1539.0
sI1265
F1446.0
sI1266
F2046.0
sI1267
F1794.0
sI1268
F1843.0
sI1269
F1770.0
sI1270
F1512.0
sI1271
F1185.0
sI1272
F1964.0
sI1273
F1575.0
sI1274
F1887.0
sI1275
F1509.0
sI1276
F1977.0
sI1277
F2072.0
sI1278
F1841.0
sI1279
F1868.0
sI1280
F1855.0
sI1281
F2086.0
sI1282
F1399.0
sI1283
F1729.0
sI1284
F1399.0
sI1285
F1760.0
sI1286
F1399.0
sI1287
F1576.0
sI1288
F1355.0
sI1290
F1454.0
sI1291
F1334.0
sI1292
F1717.0
sI1293
F1891.0
sI1294
F1480.0
sI1295
F1521.0
sI1296
F1289.0
sI1298
F1182.0
sI1299
F1268.0
sI1300
F1344.0
sI1301
F1925.0
sI1303
F1386.0
sI1304
F1738.0
sI1305
F1805.0
sI1306
F1387.0
sI1307
F1992.0
sI1308
F1775.0
sI1310
F1480.0
sI1311
F1369.0
sI1312
F1280.0
sI1313
F1560.0
sI1314
F2127.0
sI1315
F1389.0
sI1316
F1503.0
sI1317
F1609.0
sI1318
F1581.0
sI1319
F1298.0
sI1320
F1774.0
sI1321
F1854.0
sI1322
F1450.0
sI1323
F2004.0
sI1324
F1658.0
sI1325
F1841.0
sI1326
F2134.0
sI1328
F1778.0
sI1329
F1856.0
sI1330
F1821.0
sI1331
F1808.0
sI1332
F1877.0
sI1333
F1756.0
sI1334
F1449.0
sI1335
F1631.0
sI1336
F1741.0
sI1337
F1455.0
sI1338
F1897.0
sI1339
F1512.0
sI1340
F1503.0
sI1341
F1220.0
sI1342
F1418.0
sI1343
F1700.0
sI1344
F1730.0
sI1345
F1989.0
sI1346
F1563.0
sI1347
F1203.0
sI1348
F1597.0
sI1349
F1590.0
sI1350
F1765.0
sI1351
F1567.0
sI1352
F1649.0
sI1353
F1732.0
sI1354
F1117.0
sI1355
F1736.0
sI1356
F1537.0
sI1357
F1395.0
sI1358
F1466.0
sI1359
F1397.0
sI1360
F1508.0
sI1361
F2001.0
sI1362
F1694.0
sI1363
F1461.0
sI1364
F1696.0
sI1365
F1432.0
sI1366
F1495.0
sI1367
F1460.0
sI1368
F1388.0
sI1369
F1371.0
sI1370
F1487.0
sI1371
F1851.0
sI1372
F1582.0
sI1373
F1539.0
sI1374
F1534.0
sI1375
F1561.0
sI1376
F1652.0
sI1377
F1411.0
sI1378
F1905.0
sI1379
F1809.0
sI1380
F1244.0
sI1381
F1458.0
sI1382
F1805.0
sI1383
F1436.0
sI1384
F1239.0
sI1385
F1818.0
sI1386
F1756.0
sI1387
F1880.0
sI1388
F1942.0
sI1389
F1378.0
sI1390
F1810.0
sI1391
F1287.0
sI1392
F1610.0
sI1393
F2171.0
sI1394
F1327.0
sI1395
F1669.0
sI1396
F1973.0
sI1397
F1912.0
sI1398
F1569.0
sI1399
F1562.0
sI1400
F1968.0
sI1401
F1837.0
sI1402
F1408.0
sI1403
F1627.0
sI1404
F1181.0
sI1405
F1444.0
sI1406
F1219.0
sI1407
F1458.0
sI1408
F1479.0
sI1409
F1737.0
sI1410
F1174.0
sI1411
F1370.0
sI1412
F1765.0
sI1413
F1298.0
sI1414
F1449.0
sI1415
F1479.0
sI1416
F1787.0
sI1417
F1868.0
sI1418
F1561.0
sI1419
F1285.0
sI1420
F1171.0
sI1421
F1639.0
sI1422
F1463.0
sI1423
F1462.0
sI1424
F1933.0
sI1425
F1613.0
sI1426
F1618.0
sI1427
F1534.0
sI1428
F1543.0
sI1429
F1735.0
sI1430
F1452.0
sI1431
F1716.0
sI1433
F1933.0
sI1434
F1767.0
sI1435
F2008.0
sI1436
F1681.0
sI1437
F1812.0
sI1438
F1879.0
sI1439
F1831.0
sI1440
F1457.0
sI1441
F1556.0
sI1442
F1490.0
sI1443
F1628.0
sI1444
F1541.0
sI1447
F1599.0
sI1448
F1661.0
sI1449
F1923.0
sI1450
F1740.0
sI1451
F1721.0
sI1452
F1940.0
sI1453
F1647.0
sI1454
F1733.0
sI1455
F1961.0
sI1456
F1400.0
sI1457
F1385.0
sI1458
F2049.0
sI1459
F1640.0
sI1460
F1595.0
sI1461
F1669.0
sI1462
F1914.0
sI1463
F1594.0
sI1464
F1541.0
ssI2013
(dp29
I1102
F1708.0
sI1103
F1847.0
sI1104
F1913.0
sI1105
F1142.0
sI1106
F1188.0
sI1107
F1599.0
sI1108
F1133.0
sI1110
F1408.0
sI1111
F1496.0
sI1112
F1986.0
sI1113
F1759.0
sI1114
F1567.0
sI1115
F1372.0
sI1116
F1838.0
sI1117
F1581.0
sI1119
F1429.0
sI1120
F1604.0
sI1122
F1312.0
sI1123
F1534.0
sI1124
F1934.0
sI1125
F1846.0
sI1126
F1364.0
sI1127
F1081.0
sI1129
F1799.0
sI1130
F1778.0
sI1131
F1585.0
sI1132
F1522.0
sI1133
F1599.0
sI1135
F1417.0
sI1136
F1396.0
sI1137
F1782.0
sI1138
F1583.0
sI1139
F1943.0
sI1140
F1863.0
sI1141
F1386.0
sI1142
F1593.0
sI1143
F1913.0
sI1144
F1343.0
sI1145
F1527.0
sI1146
F1327.0
sI1148
F1423.0
sI1149
F1512.0
sI1150
F1755.0
sI1151
F1380.0
sI1152
F1185.0
sI1153
F1982.0
sI1154
F1268.0
sI1155
F1731.0
sI1156
F1587.0
sI1157
F1450.0
sI1158
F1704.0
sI1159
F1307.0
sI1160
F1883.0
sI1161
F1926.0
sI1162
F1412.0
sI1163
F1964.0
sI1164
F1240.0
sI1165
F1448.0
sI1166
F1976.0
sI1167
F1480.0
sI1168
F1464.0
sI1169
F1424.0
sI1170
F1361.0
sI1171
F1283.0
sI1172
F1838.0
sI1173
F1777.0
sI1174
F1674.0
sI1175
F1342.0
sI1176
F1778.0
sI1177
F1606.0
sI1178
F1750.0
sI1179
F1699.0
sI1180
F1629.0
sI1181
F2122.0
sI1182
F1553.0
sI1183
F1325.0
sI1184
F1570.0
sI1185
F1475.0
sI1186
F1367.0
sI1187
F1693.0
sI1188
F1255.0
sI1189
F1566.0
sI1190
F1420.0
sI1191
F1744.0
sI1192
F1152.0
sI1193
F1611.0
sI1194
F1484.0
sI1195
F1653.0
sI1196
F2051.0
sI1197
F1187.0
sI1198
F1551.0
sI1199
F1923.0
sI1200
F1487.0
sI1201
F1603.0
sI1202
F1320.0
sI1203
F1645.0
sI1204
F1440.0
sI1205
F1495.0
sI1206
F1685.0
sI1207
F2069.0
sI1208
F1802.0
sI1209
F1581.0
sI1210
F1742.0
sI1211
F2089.0
sI1212
F955.0
sI1214
F1388.0
sI1216
F1464.0
sI1217
F1782.0
sI1218
F1552.0
sI1219
F1430.0
sI1220
F1392.0
sI1221
F1403.0
sI1222
F1638.0
sI1223
F1281.0
sI1224
F1172.0
sI1225
F1553.0
sI1226
F1260.0
sI1227
F1539.0
sI1228
F1914.0
sI1229
F1751.0
sI1231
F2058.0
sI1232
F1758.0
sI1233
F1703.0
sI1234
F1882.0
sI1235
F1972.0
sI1236
F1484.0
sI1237
F1328.0
sI1238
F1243.0
sI1239
F1396.0
sI1240
F1480.0
sI1241
F1647.0
sI1242
F2143.0
sI1243
F2051.0
sI1244
F1094.0
sI1245
F1710.0
sI1246
F2026.0
sI1247
F1887.0
sI1248
F1559.0
sI1249
F1278.0
sI1250
F1648.0
sI1251
F1402.0
sI1252
F1415.0
sI1253
F1706.0
sI1254
F1623.0
sI1255
F1203.0
sI1256
F1737.0
sI1257
F2197.0
sI1258
F1536.0
sI1259
F1661.0
sI1260
F1499.0
sI1261
F1845.0
sI1263
F1349.0
sI1264
F1585.0
sI1265
F1426.0
sI1266
F2082.0
sI1267
F1652.0
sI1268
F1892.0
sI1269
F1840.0
sI1270
F1438.0
sI1271
F1085.0
sI1272
F2057.0
sI1273
F1622.0
sI1274
F2051.0
sI1275
F1419.0
sI1276
F2104.0
sI1277
F2093.0
sI1278
F1888.0
sI1279
F1975.0
sI1280
F1695.0
sI1281
F1986.0
sI1282
F1313.0
sI1283
F1644.0
sI1284
F1331.0
sI1285
F1783.0
sI1286
F1384.0
sI1287
F1507.0
sI1288
F1434.0
sI1290
F1211.0
sI1291
F1501.0
sI1292
F1826.0
sI1293
F1749.0
sI1294
F1449.0
sI1295
F1640.0
sI1296
F1234.0
sI1297
F1482.0
sI1298
F1204.0
sI1299
F1424.0
sI1300
F1489.0
sI1301
F1945.0
sI1303
F1396.0
sI1304
F1781.0
sI1305
F1659.0
sI1306
F1316.0
sI1307
F2041.0
sI1308
F1816.0
sI1309
F1356.0
sI1310
F1606.0
sI1311
F1345.0
sI1312
F1328.0
sI1313
F1563.0
sI1314
F2070.0
sI1315
F1464.0
sI1316
F1438.0
sI1317
F1504.0
sI1318
F1655.0
sI1319
F1338.0
sI1320
F1784.0
sI1321
F1740.0
sI1322
F1621.0
sI1323
F2033.0
sI1324
F1593.0
sI1325
F1805.0
sI1326
F2130.0
sI1328
F1874.0
sI1329
F1986.0
sI1330
F1500.0
sI1331
F1629.0
sI1332
F1973.0
sI1333
F1681.0
sI1334
F1648.0
sI1335
F1473.0
sI1336
F1676.0
sI1337
F1462.0
sI1338
F1970.0
sI1339
F1489.0
sI1340
F1339.0
sI1341
F1232.0
sI1342
F1285.0
sI1343
F1666.0
sI1344
F1833.0
sI1345
F1868.0
sI1346
F1503.0
sI1347
F1245.0
sI1348
F1575.0
sI1349
F1422.0
sI1350
F1759.0
sI1351
F1623.0
sI1352
F1648.0
sI1353
F1761.0
sI1354
F1097.0
sI1355
F1742.0
sI1356
F1609.0
sI1357
F1323.0
sI1358
F1445.0
sI1359
F1365.0
sI1360
F1600.0
sI1361
F1931.0
sI1362
F1654.0
sI1363
F1393.0
sI1364
F1496.0
sI1365
F1636.0
sI1366
F1472.0
sI1367
F1448.0
sI1368
F1413.0
sI1369
F1434.0
sI1370
F1381.0
sI1371
F1769.0
sI1372
F1712.0
sI1373
F1399.0
sI1374
F1555.0
sI1375
F1599.0
sI1376
F1651.0
sI1377
F1370.0
sI1378
F1769.0
sI1379
F1869.0
sI1380
F1399.0
sI1381
F1358.0
sI1382
F1728.0
sI1383
F1391.0
sI1384
F1222.0
sI1385
F1819.0
sI1386
F1793.0
sI1387
F2002.0
sI1388
F1983.0
sI1389
F1356.0
sI1390
F1814.0
sI1391
F1433.0
sI1392
F1675.0
sI1393
F2111.0
sI1394
F1296.0
sI1395
F1621.0
sI1396
F1968.0
sI1397
F1943.0
sI1398
F1601.0
sI1399
F1472.0
sI1400
F1896.0
sI1401
F1785.0
sI1402
F1457.0
sI1403
F1637.0
sI1404
F1225.0
sI1405
F1527.0
sI1406
F1515.0
sI1407
F1432.0
sI1408
F1596.0
sI1409
F1704.0
sI1410
F1291.0
sI1411
F1448.0
sI1412
F1708.0
sI1413
F1458.0
sI1414
F1609.0
sI1415
F1318.0
sI1416
F1779.0
sI1417
F1937.0
sI1418
F1504.0
sI1419
F1256.0
sI1420
F1228.0
sI1421
F1488.0
sI1422
F1359.0
sI1423
F1412.0
sI1424
F1940.0
sI1425
F1717.0
sI1426
F1656.0
sI1427
F1470.0
sI1428
F1664.0
sI1429
F1708.0
sI1430
F1308.0
sI1431
F1746.0
sI1433
F1976.0
sI1434
F1840.0
sI1435
F1887.0
sI1436
F1611.0
sI1437
F1906.0
sI1438
F1912.0
sI1439
F1733.0
sI1440
F1368.0
sI1441
F1477.0
sI1442
F1607.0
sI1443
F1631.0
sI1444
F1603.0
sI1447
F1576.0
sI1448
F1702.0
sI1449
F1843.0
sI1450
F1682.0
sI1451
F1757.0
sI1452
F1791.0
sI1453
F1670.0
sI1454
F1496.0
sI1455
F2001.0
sI1456
F1454.0
sI1457
F1384.0
sI1458
F2018.0
sI1459
F1483.0
sI1460
F1671.0
sI1461
F1717.0
sI1462
F1823.0
sI1463
F1542.0
sI1464
F1575.0
ssI2014
(dp30
I1101
F1367.0
sI1102
F1612.0
sI1103
F1760.0
sI1104
F1802.0
sI1105
F1233.0
sI1106
F1305.0
sI1107
F1563.0
sI1108
F1175.0
sI1110
F1561.0
sI1111
F1323.0
sI1112
F2101.0
sI1113
F1852.0
sI1114
F1514.0
sI1115
F1311.0
sI1116
F1885.0
sI1117
F1576.0
sI1119
F1478.0
sI1120
F1691.0
sI1122
F1323.0
sI1123
F1368.0
sI1124
F2022.0
sI1125
F1799.0
sI1126
F1218.0
sI1127
F1154.0
sI1129
F1803.0
sI1130
F1666.0
sI1131
F1675.0
sI1132
F1484.0
sI1133
F1536.0
sI1135
F1457.0
sI1136
F1448.0
sI1137
F1625.0
sI1138
F1668.0
sI1139
F1805.0
sI1140
F1875.0
sI1141
F1344.0
sI1142
F1540.0
sI1143
F1869.0
sI1144
F1274.0
sI1145
F1617.0
sI1146
F1285.0
sI1148
F1373.0
sI1149
F1382.0
sI1150
F1682.0
sI1151
F1442.0
sI1152
F1305.0
sI1153
F2032.0
sI1154
F1206.0
sI1155
F1863.0
sI1156
F1708.0
sI1157
F1521.0
sI1158
F1547.0
sI1159
F1387.0
sI1160
F1917.0
sI1161
F1748.0
sI1162
F1541.0
sI1163
F2138.0
sI1164
F1281.0
sI1165
F1240.0
sI1166
F2014.0
sI1167
F1394.0
sI1168
F1446.0
sI1169
F1471.0
sI1170
F1407.0
sI1171
F1357.0
sI1172
F1749.0
sI1173
F1932.0
sI1174
F1755.0
sI1175
F1242.0
sI1176
F1652.0
sI1177
F1667.0
sI1178
F1572.0
sI1179
F1628.0
sI1180
F1599.0
sI1181
F2075.0
sI1182
F1595.0
sI1183
F1344.0
sI1184
F1669.0
sI1185
F1619.0
sI1186
F1431.0
sI1187
F1583.0
sI1188
F1288.0
sI1189
F1559.0
sI1190
F1494.0
sI1191
F1647.0
sI1192
F1250.0
sI1193
F1417.0
sI1194
F1450.0
sI1195
F1603.0
sI1196
F2189.0
sI1197
F1295.0
sI1198
F1563.0
sI1199
F1927.0
sI1200
F1493.0
sI1201
F1712.0
sI1202
F1269.0
sI1203
F1849.0
sI1204
F1385.0
sI1205
F1459.0
sI1206
F1613.0
sI1207
F1946.0
sI1208
F1879.0
sI1209
F1724.0
sI1210
F1775.0
sI1211
F2052.0
sI1212
F987.0
sI1213
F1507.0
sI1214
F1445.0
sI1216
F1475.0
sI1217
F1850.0
sI1218
F1598.0
sI1219
F1468.0
sI1220
F1392.0
sI1221
F1545.0
sI1222
F1729.0
sI1223
F1203.0
sI1224
F1166.0
sI1225
F1495.0
sI1226
F1310.0
sI1227
F1392.0
sI1228
F1931.0
sI1229
F1684.0
sI1230
F1566.0
sI1231
F1925.0
sI1232
F1788.0
sI1233
F1730.0
sI1234
F1885.0
sI1235
F2080.0
sI1236
F1609.0
sI1237
F1245.0
sI1238
F1204.0
sI1239
F1383.0
sI1240
F1332.0
sI1241
F1500.0
sI1242
F2063.0
sI1243
F1974.0
sI1244
F1133.0
sI1245
F1574.0
sI1246
F2104.0
sI1247
F1740.0
sI1248
F1463.0
sI1249
F1218.0
sI1250
F1482.0
sI1251
F1287.0
sI1252
F1478.0
sI1253
F1621.0
sI1254
F1402.0
sI1255
F1153.0
sI1256
F1836.0
sI1257
F2129.0
sI1258
F1553.0
sI1259
F1450.0
sI1260
F1455.0
sI1261
F1863.0
sI1262
F1432.0
sI1263
F1243.0
sI1264
F1726.0
sI1265
F1466.0
sI1266
F1920.0
sI1267
F1509.0
sI1268
F1878.0
sI1269
F1875.0
sI1270
F1392.0
sI1271
F1099.0
sI1272
F2012.0
sI1273
F1726.0
sI1274
F1900.0
sI1275
F1530.0
sI1276
F2104.0
sI1277
F2090.0
sI1278
F1907.0
sI1279
F1868.0
sI1280
F1647.0
sI1281
F1947.0
sI1282
F1347.0
sI1283
F1713.0
sI1284
F1349.0
sI1285
F1601.0
sI1286
F1375.0
sI1287
F1561.0
sI1288
F1436.0
sI1290
F1112.0
sI1291
F1515.0
sI1292
F1837.0
sI1293
F1664.0
sI1294
F1463.0
sI1295
F1801.0
sI1296
F1443.0
sI1297
F1341.0
sI1298
F1227.0
sI1299
F1231.0
sI1300
F1636.0
sI1301
F1969.0
sI1303
F1451.0
sI1304
F1916.0
sI1305
F1687.0
sI1306
F1206.0
sI1307
F2065.0
sI1308
F1781.0
sI1309
F1375.0
sI1310
F1387.0
sI1311
F1406.0
sI1312
F1319.0
sI1313
F1477.0
sI1314
F2066.0
sI1315
F1501.0
sI1316
F1464.0
sI1317
F1549.0
sI1318
F1560.0
sI1319
F1438.0
sI1320
F1733.0
sI1321
F1777.0
sI1322
F1597.0
sI1323
F1863.0
sI1324
F1581.0
sI1325
F1757.0
sI1326
F2043.0
sI1328
F1962.0
sI1329
F1952.0
sI1330
F1591.0
sI1331
F1546.0
sI1332
F1970.0
sI1333
F1748.0
sI1334
F1633.0
sI1335
F1412.0
sI1336
F1775.0
sI1337
F1558.0
sI1338
F2019.0
sI1339
F1559.0
sI1340
F1453.0
sI1341
F1200.0
sI1342
F1172.0
sI1343
F1690.0
sI1344
F1941.0
sI1345
F1794.0
sI1346
F1604.0
sI1347
F1399.0
sI1348
F1619.0
sI1349
F1364.0
sI1350
F1765.0
sI1351
F1521.0
sI1352
F1620.0
sI1353
F1677.0
sI1354
F1138.0
sI1355
F1686.0
sI1356
F1633.0
sI1357
F1206.0
sI1358
F1574.0
sI1359
F1351.0
sI1360
F1632.0
sI1361
F2057.0
sI1362
F1773.0
sI1363
F1379.0
sI1364
F1635.0
sI1365
F1602.0
sI1366
F1376.0
sI1367
F1533.0
sI1368
F1363.0
sI1369
F1479.0
sI1370
F1360.0
sI1371
F1795.0
sI1372
F1846.0
sI1373
F1522.0
sI1374
F1816.0
sI1375
F1479.0
sI1376
F1731.0
sI1377
F1417.0
sI1378
F1644.0
sI1379
F1882.0
sI1380
F1411.0
sI1381
F1184.0
sI1382
F1734.0
sI1383
F1450.0
sI1384
F1312.0
sI1385
F1905.0
sI1386
F1908.0
sI1387
F2002.0
sI1388
F1858.0
sI1389
F1470.0
sI1390
F1930.0
sI1391
F1310.0
sI1392
F1639.0
sI1393
F2075.0
sI1394
F1456.0
sI1395
F1580.0
sI1396
F1737.0
sI1397
F1971.0
sI1398
F1377.0
sI1399
F1475.0
sI1400
F1978.0
sI1401
F1759.0
sI1402
F1359.0
sI1403
F1733.0
sI1404
F1210.0
sI1405
F1735.0
sI1406
F1666.0
sI1407
F1394.0
sI1408
F1602.0
sI1409
F1804.0
sI1410
F1279.0
sI1411
F1422.0
sI1412
F1669.0
sI1413
F1355.0
sI1414
F1669.0
sI1415
F1337.0
sI1416
F1724.0
sI1417
F2026.0
sI1418
F1655.0
sI1419
F1370.0
sI1420
F1230.0
sI1421
F1477.0
sI1422
F1388.0
sI1423
F1374.0
sI1424
F1858.0
sI1425
F1637.0
sI1426
F1556.0
sI1427
F1396.0
sI1428
F1824.0
sI1429
F1748.0
sI1430
F1497.0
sI1431
F1794.0
sI1433
F1965.0
sI1434
F1692.0
sI1435
F1792.0
sI1436
F1645.0
sI1437
F2065.0
sI1438
F2093.0
sI1439
F1626.0
sI1440
F1455.0
sI1441
F1499.0
sI1442
F1431.0
sI1443
F1632.0
sI1444
F1738.0
sI1447
F1572.0
sI1448
F1783.0
sI1449
F1805.0
sI1450
F1626.0
sI1451
F1641.0
sI1452
F1863.0
sI1453
F1771.0
sI1454
F1649.0
sI1455
F2073.0
sI1456
F1605.0
sI1457
F1474.0
sI1458
F2099.0
sI1459
F1551.0
sI1460
F1669.0
sI1461
F1706.0
sI1462
F1901.0
sI1463
F1544.0
sI1464
F1526.0
ssI2015
(dp31
I1101
F1266.0
sI1102
F1626.0
sI1103
F1686.0
sI1104
F1830.0
sI1105
F1183.0
sI1106
F1363.0
sI1107
F1657.0
sI1108
F1072.0
sI1110
F1520.0
sI1111
F1423.0
sI1112
F2160.0
sI1113
F1847.0
sI1114
F1460.0
sI1115
F1278.0
sI1116
F1993.0
sI1117
F1420.0
sI1119
F1426.0
sI1120
F1752.0
sI1122
F1280.0
sI1123
F1312.0
sI1124
F2015.0
sI1125
F1737.0
sI1126
F1196.0
sI1127
F1163.0
sI1129
F1885.0
sI1130
F1744.0
sI1131
F1516.0
sI1132
F1618.0
sI1133
F1467.0
sI1135
F1422.0
sI1136
F1485.0
sI1137
F1603.0
sI1138
F1763.0
sI1139
F1952.0
sI1140
F1899.0
sI1141
F1616.0
sI1142
F1517.0
sI1143
F1838.0
sI1144
F1214.0
sI1145
F1558.0
sI1146
F1161.0
sI1148
F1238.0
sI1149
F1470.0
sI1150
F1595.0
sI1151
F1572.0
sI1152
F1267.0
sI1153
F1983.0
sI1154
F1250.0
sI1155
F1837.0
sI1156
F1679.0
sI1157
F1553.0
sI1158
F1420.0
sI1159
F1477.0
sI1160
F1815.0
sI1161
F1908.0
sI1162
F1482.0
sI1163
F1937.0
sI1164
F1254.0
sI1165
F1369.0
sI1166
F1834.0
sI1167
F1381.0
sI1168
F1355.0
sI1169
F1382.0
sI1170
F1508.0
sI1171
F1484.0
sI1172
F1888.0
sI1173
F1936.0
sI1174
F1563.0
sI1175
F1363.0
sI1176
F1528.0
sI1177
F1685.0
sI1178
F1570.0
sI1179
F1516.0
sI1180
F1537.0
sI1181
F2210.0
sI1182
F1608.0
sI1183
F1454.0
sI1184
F1621.0
sI1185
F1640.0
sI1186
F1619.0
sI1187
F1618.0
sI1188
F1359.0
sI1189
F1509.0
sI1190
F1459.0
sI1191
F1679.0
sI1192
F1241.0
sI1193
F1320.0
sI1194
F1399.0
sI1195
F1614.0
sI1196
F1947.0
sI1197
F1117.0
sI1198
F1557.0
sI1199
F1896.0
sI1200
F1527.0
sI1201
F1705.0
sI1202
F1314.0
sI1203
F1834.0
sI1204
F1555.0
sI1205
F1471.0
sI1206
F1564.0
sI1207
F1987.0
sI1208
F1926.0
sI1209
F1752.0
sI1210
F1721.0
sI1211
F2127.0
sI1212
F882.0
sI1213
F1481.0
sI1214
F1444.0
sI1216
F1396.0
sI1217
F1799.0
sI1218
F1636.0
sI1219
F1536.0
sI1220
F1546.0
sI1221
F1504.0
sI1222
F1648.0
sI1223
F1281.0
sI1224
F1280.0
sI1225
F1414.0
sI1226
F1255.0
sI1227
F1424.0
sI1228
F1914.0
sI1229
F1777.0
sI1230
F1539.0
sI1231
F1896.0
sI1232
F1681.0
sI1233
F1767.0
sI1234
F1963.0
sI1235
F2079.0
sI1236
F1562.0
sI1237
F1361.0
sI1238
F1213.0
sI1239
F1294.0
sI1240
F1342.0
sI1241
F1586.0
sI1242
F2073.0
sI1243
F1875.0
sI1244
F1209.0
sI1245
F1662.0
sI1246
F2214.0
sI1247
F1734.0
sI1248
F1567.0
sI1249
F1344.0
sI1250
F1514.0
sI1251
F1161.0
sI1252
F1429.0
sI1253
F1621.0
sI1254
F1383.0
sI1255
F1219.0
sI1256
F1834.0
sI1257
F2103.0
sI1258
F1496.0
sI1259
F1414.0
sI1260
F1621.0
sI1261
F1900.0
sI1262
F1352.0
sI1263
F1135.0
sI1264
F1668.0
sI1265
F1391.0
sI1266
F1817.0
sI1267
F1489.0
sI1268
F2030.0
sI1269
F1781.0
sI1270
F1398.0
sI1271
F1333.0
sI1272
F1884.0
sI1273
F1559.0
sI1274
F1929.0
sI1275
F1534.0
sI1276
F1937.0
sI1277
F2106.0
sI1278
F1860.0
sI1279
F1891.0
sI1280
F1668.0
sI1281
F1710.0
sI1282
F1384.0
sI1283
F1552.0
sI1284
F1534.0
sI1285
F1611.0
sI1286
F1306.0
sI1287
F1541.0
sI1288
F1261.0
sI1290
F1079.0
sI1291
F1485.0
sI1292
F1718.0
sI1293
F1780.0
sI1294
F1444.0
sI1295
F1758.0
sI1296
F1514.0
sI1297
F1374.0
sI1298
F1367.0
sI1299
F1186.0
sI1300
F1646.0
sI1301
F1999.0
sI1303
F1450.0
sI1304
F1789.0
sI1305
F1557.0
sI1306
F1421.0
sI1307
F1787.0
sI1308
F1757.0
sI1309
F1334.0
sI1310
F1383.0
sI1311
F1335.0
sI1312
F1453.0
sI1313
F1472.0
sI1314
F2087.0
sI1315
F1316.0
sI1316
F1575.0
sI1317
F1534.0
sI1318
F1676.0
sI1319
F1538.0
sI1320
F1946.0
sI1321
F1786.0
sI1322
F1587.0
sI1323
F2106.0
sI1324
F1615.0
sI1325
F1550.0
sI1326
F2026.0
sI1328
F2042.0
sI1329
F1906.0
sI1330
F1742.0
sI1331
F1610.0
sI1332
F2031.0
sI1333
F1759.0
sI1334
F1559.0
sI1335
F1396.0
sI1336
F1810.0
sI1337
F1672.0
sI1338
F1926.0
sI1339
F1633.0
sI1340
F1447.0
sI1341
F1306.0
sI1342
F1175.0
sI1343
F1614.0
sI1344
F1963.0
sI1345
F1911.0
sI1346
F1529.0
sI1347
F1475.0
sI1348
F1825.0
sI1349
F1450.0
sI1350
F1810.0
sI1351
F1627.0
sI1352
F1603.0
sI1353
F1625.0
sI1354
F1182.0
sI1355
F1705.0
sI1356
F1533.0
sI1357
F1363.0
sI1358
F1644.0
sI1359
F1346.0
sI1360
F1659.0
sI1361
F2022.0
sI1362
F1671.0
sI1363
F1260.0
sI1364
F1674.0
sI1365
F1606.0
sI1366
F1254.0
sI1367
F1551.0
sI1368
F1273.0
sI1369
F1433.0
sI1370
F1423.0
sI1371
F1793.0
sI1372
F1866.0
sI1373
F1436.0
sI1374
F1980.0
sI1375
F1430.0
sI1376
F1816.0
sI1377
F1536.0
sI1378
F1537.0
sI1379
F1598.0
sI1380
F1389.0
sI1381
F1291.0
sI1382
F1759.0
sI1383
F1564.0
sI1384
F1395.0
sI1385
F1948.0
sI1386
F1723.0
sI1387
F1666.0
sI1388
F1835.0
sI1389
F1501.0
sI1390
F1879.0
sI1391
F1257.0
sI1392
F1637.0
sI1393
F1987.0
sI1394
F1524.0
sI1395
F1733.0
sI1396
F1898.0
sI1397
F1844.0
sI1398
F1243.0
sI1399
F1382.0
sI1400
F1938.0
sI1401
F1857.0
sI1402
F1376.0
sI1403
F1717.0
sI1404
F1406.0
sI1405
F1688.0
sI1406
F1459.0
sI1407
F1334.0
sI1408
F1626.0
sI1409
F1904.0
sI1410
F1258.0
sI1411
F1523.0
sI1412
F1740.0
sI1413
F1633.0
sI1414
F1695.0
sI1415
F1436.0
sI1416
F1613.0
sI1417
F1977.0
sI1418
F1605.0
sI1419
F1516.0
sI1420
F1131.0
sI1421
F1405.0
sI1422
F1329.0
sI1423
F1547.0
sI1424
F1786.0
sI1425
F1675.0
sI1426
F1485.0
sI1427
F1470.0
sI1428
F1979.0
sI1429
F1745.0
sI1430
F1343.0
sI1431
F1786.0
sI1433
F1971.0
sI1434
F1820.0
sI1435
F1853.0
sI1436
F1573.0
sI1437
F2159.0
sI1438
F2137.0
sI1439
F1605.0
sI1440
F1371.0
sI1441
F1461.0
sI1442
F1351.0
sI1443
F1668.0
sI1444
F1671.0
sI1447
F1389.0
sI1448
F1751.0
sI1449
F1764.0
sI1450
F1681.0
sI1451
F1485.0
sI1452
F1995.0
sI1453
F1785.0
sI1454
F1619.0
sI1455
F2081.0
sI1456
F1627.0
sI1457
F1473.0
sI1458
F2199.0
sI1459
F1694.0
sI1460
F1468.0
sI1461
F1827.0
sI1462
F1979.0
sI1463
F1649.0
sI1464
F1409.0
ssI2016
(dp32
I1101
F1306.0
sI1102
F1585.0
sI1103
F1767.0
sI1104
F1865.0
sI1105
F1179.0
sI1106
F1306.0
sI1107
F1657.0
sI1108
F1218.0
sI1110
F1479.0
sI1111
F1384.0
sI1112
F2080.0
sI1113
F1807.0
sI1114
F1702.0
sI1115
F1171.0
sI1116
F1862.0
sI1117
F1348.0
sI1119
F1491.0
sI1120
F1692.0
sI1122
F1469.0
sI1123
F1518.0
sI1124
F2028.0
sI1125
F1661.0
sI1126
F1265.0
sI1127
F1219.0
sI1129
F1832.0
sI1130
F1606.0
sI1131
F1528.0
sI1132
F1548.0
sI1133
F1376.0
sI1135
F1349.0
sI1136
F1305.0
sI1137
F1561.0
sI1138
F1730.0
sI1139
F1993.0
sI1140
F1879.0
sI1141
F1593.0
sI1142
F1434.0
sI1143
F1976.0
sI1144
F1231.0
sI1145
F1485.0
sI1146
F1201.0
sI1148
F1173.0
sI1149
F1287.0
sI1150
F1564.0
sI1151
F1712.0
sI1152
F1140.0
sI1153
F1948.0
sI1154
F1217.0
sI1155
F1851.0
sI1156
F1478.0
sI1157
F1532.0
sI1158
F1521.0
sI1159
F1426.0
sI1160
F1907.0
sI1161
F1757.0
sI1162
F1615.0
sI1163
F1979.0
sI1164
F1218.0
sI1165
F1380.0
sI1166
F1859.0
sI1167
F1591.0
sI1168
F1360.0
sI1169
F1387.0
sI1170
F1432.0
sI1171
F1415.0
sI1172
F1864.0
sI1173
F1945.0
sI1174
F1404.0
sI1175
F1212.0
sI1176
F1555.0
sI1177
F1663.0
sI1178
F1586.0
sI1179
F1418.0
sI1180
F1427.0
sI1181
F2071.0
sI1182
F1632.0
sI1183
F1425.0
sI1184
F1478.0
sI1185
F1643.0
sI1186
F1500.0
sI1187
F1557.0
sI1188
F1292.0
sI1189
F1505.0
sI1190
F1601.0
sI1191
F1783.0
sI1192
F1438.0
sI1193
F1539.0
sI1194
F1381.0
sI1195
F1569.0
sI1196
F1909.0
sI1197
F1092.0
sI1198
F1466.0
sI1199
F1899.0
sI1200
F1660.0
sI1201
F1863.0
sI1202
F1441.0
sI1203
F1856.0
sI1204
F1484.0
sI1205
F1436.0
sI1206
F1574.0
sI1207
F1866.0
sI1208
F1930.0
sI1209
F1553.0
sI1210
F1886.0
sI1211
F2054.0
sI1212
F910.0
sI1213
F1615.0
sI1214
F1499.0
sI1216
F1319.0
sI1217
F1643.0
sI1218
F1779.0
sI1219
F1544.0
sI1220
F1720.0
sI1221
F1461.0
sI1222
F1813.0
sI1223
F1396.0
sI1224
F1236.0
sI1225
F1521.0
sI1226
F1390.0
sI1227
F1333.0
sI1228
F1824.0
sI1229
F1749.0
sI1230
F1551.0
sI1231
F2033.0
sI1232
F1642.0
sI1233
F1764.0
sI1234
F1971.0
sI1235
F2026.0
sI1236
F1665.0
sI1237
F1476.0
sI1238
F1299.0
sI1239
F1344.0
sI1240
F1277.0
sI1241
F1646.0
sI1242
F2190.0
sI1243
F1869.0
sI1244
F1304.0
sI1245
F1633.0
sI1246
F2121.0
sI1247
F1616.0
sI1248
F1329.0
sI1249
F1244.0
sI1250
F1568.0
sI1251
F1287.0
sI1252
F1377.0
sI1253
F1723.0
sI1254
F1415.0
sI1255
F1207.0
sI1256
F1763.0
sI1257
F2092.0
sI1258
F1566.0
sI1259
F1357.0
sI1260
F1622.0
sI1261
F1889.0
sI1262
F1340.0
sI1263
F1181.0
sI1264
F1525.0
sI1265
F1333.0
sI1266
F1888.0
sI1267
F1628.0
sI1268
F2044.0
sI1269
F1706.0
sI1270
F1296.0
sI1271
F1262.0
sI1272
F1817.0
sI1273
F1482.0
sI1274
F2056.0
sI1275
F1526.0
sI1276
F1957.0
sI1277
F2145.0
sI1278
F1660.0
sI1279
F1876.0
sI1280
F1741.0
sI1281
F1659.0
sI1282
F1360.0
sI1283
F1584.0
sI1284
F1731.0
sI1285
F1606.0
sI1286
F1385.0
sI1287
F1593.0
sI1288
F1232.0
sI1290
F1092.0
sI1291
F1406.0
sI1292
F1773.0
sI1293
F1595.0
sI1294
F1345.0
sI1295
F1657.0
sI1296
F1590.0
sI1297
F1361.0
sI1298
F1436.0
sI1299
F1199.0
sI1300
F1364.0
sI1301
F1870.0
sI1303
F1560.0
sI1304
F1788.0
sI1305
F1702.0
sI1306
F1494.0
sI1307
F1729.0
sI1308
F1728.0
sI1309
F1260.0
sI1310
F1312.0
sI1311
F1310.0
sI1312
F1470.0
sI1313
F1450.0
sI1314
F2150.0
sI1315
F1428.0
sI1316
F1592.0
sI1317
F1477.0
sI1318
F1635.0
sI1319
F1296.0
sI1320
F1900.0
sI1321
F1834.0
sI1322
F1367.0
sI1323
F2029.0
sI1324
F1701.0
sI1325
F1667.0
sI1326
F1987.0
sI1328
F2089.0
sI1329
F1774.0
sI1330
F1736.0
sI1331
F1546.0
sI1332
F2110.0
sI1333
F1870.0
sI1334
F1504.0
sI1335
F1417.0
sI1336
F1821.0
sI1337
F1708.0
sI1338
F1945.0
sI1339
F1552.0
sI1340
F1407.0
sI1341
F1202.0
sI1342
F1225.0
sI1343
F1723.0
sI1344
F2008.0
sI1345
F2049.0
sI1346
F1394.0
sI1347
F1427.0
sI1348
F1762.0
sI1349
F1460.0
sI1350
F1742.0
sI1351
F1511.0
sI1352
F1398.0
sI1353
F1537.0
sI1354
F1368.0
sI1355
F1781.0
sI1356
F1693.0
sI1357
F1383.0
sI1358
F1556.0
sI1359
F1331.0
sI1360
F1524.0
sI1361
F1964.0
sI1362
F1613.0
sI1363
F1344.0
sI1364
F1686.0
sI1365
F1563.0
sI1366
F1332.0
sI1367
F1361.0
sI1368
F1299.0
sI1369
F1253.0
sI1370
F1421.0
sI1371
F2026.0
sI1372
F1876.0
sI1373
F1597.0
sI1374
F2018.0
sI1375
F1443.0
sI1376
F1904.0
sI1377
F1500.0
sI1378
F1526.0
sI1379
F1452.0
sI1380
F1422.0
sI1381
F1210.0
sI1382
F1866.0
sI1383
F1471.0
sI1384
F1356.0
sI1385
F1700.0
sI1386
F1918.0
sI1387
F1610.0
sI1388
F1923.0
sI1389
F1517.0
sI1390
F1851.0
sI1391
F1273.0
sI1392
F1714.0
sI1393
F1943.0
sI1394
F1659.0
sI1395
F1722.0
sI1396
F1927.0
sI1397
F1776.0
sI1398
F1454.0
sI1399
F1504.0
sI1400
F2002.0
sI1401
F2010.0
sI1402
F1447.0
sI1403
F1884.0
sI1404
F1496.0
sI1405
F1591.0
sI1406
F1576.0
sI1407
F1308.0
sI1408
F1583.0
sI1409
F1886.0
sI1410
F1223.0
sI1411
F1482.0
sI1412
F1805.0
sI1413
F1492.0
sI1414
F1763.0
sI1415
F1426.0
sI1416
F1590.0
sI1417
F1835.0
sI1418
F1565.0
sI1419
F1622.0
sI1420
F1165.0
sI1421
F1525.0
sI1422
F1393.0
sI1423
F1742.0
sI1424
F1755.0
sI1425
F1845.0
sI1426
F1604.0
sI1427
F1312.0
sI1428
F2055.0
sI1429
F1707.0
sI1430
F1334.0
sI1431
F1657.0
sI1433
F1950.0
sI1434
F1851.0
sI1435
F1899.0
sI1436
F1605.0
sI1437
F2170.0
sI1438
F2139.0
sI1439
F1835.0
sI1440
F1285.0
sI1441
F1501.0
sI1442
F1381.0
sI1443
F1657.0
sI1444
F1559.0
sI1447
F1512.0
sI1448
F1713.0
sI1449
F1837.0
sI1450
F1615.0
sI1451
F1637.0
sI1452
F2079.0
sI1453
F1758.0
sI1454
F1631.0
sI1455
F1988.0
sI1456
F1655.0
sI1457
F1555.0
sI1458
F2051.0
sI1459
F1529.0
sI1460
F1650.0
sI1461
F1663.0
sI1462
F2086.0
sI1463
F1749.0
sI1464
F1418.0
ss.